	.text
	.syntax unified
	.eabi_attribute	67, "2.09"	@ Tag_conformance
	.cpu	cortex-a8
	.eabi_attribute	6, 10	@ Tag_CPU_arch
	.eabi_attribute	7, 65	@ Tag_CPU_arch_profile
	.eabi_attribute	8, 1	@ Tag_ARM_ISA_use
	.eabi_attribute	9, 2	@ Tag_THUMB_ISA_use
	.fpu	neon
	.eabi_attribute	17, 1	@ Tag_ABI_PCS_GOT_use
	.eabi_attribute	20, 2	@ Tag_ABI_FP_denormal
	.eabi_attribute	23, 1	@ Tag_ABI_FP_number_model
	.eabi_attribute	34, 1	@ Tag_CPU_unaligned_access
	.eabi_attribute	24, 1	@ Tag_ABI_align_needed
	.eabi_attribute	25, 1	@ Tag_ABI_align_preserved
	.eabi_attribute	28, 1	@ Tag_ABI_VFP_args
	.eabi_attribute	38, 1	@ Tag_ABI_FP_16bit_format
	.eabi_attribute	18, 4	@ Tag_ABI_PCS_wchar_t
	.eabi_attribute	26, 2	@ Tag_ABI_enum_size
	.eabi_attribute	14, 0	@ Tag_ABI_PCS_R9_use
	.eabi_attribute	68, 1	@ Tag_Virtualization_use
	.file	"/root/Bela/projects/Guitar_Chorus_Effctor/build/render.bc"
	.file	1 "/usr/bin/../lib/gcc/arm-linux-gnueabihf/6.3.0/../../../../include/arm-linux-gnueabihf/c++/6.3.0/bits" "c++config.h"
	.file	2 "/usr/bin/../lib/gcc/arm-linux-gnueabihf/6.3.0/../../../../include/c++/6.3.0/bits" "alloc_traits.h"
	.file	3 "/usr/bin/../lib/gcc/arm-linux-gnueabihf/6.3.0/../../../../include/c++/6.3.0/ext" "new_allocator.h"
	.file	4 "/usr/bin/../lib/gcc/arm-linux-gnueabihf/6.3.0/../../../../include/arm-linux-gnueabihf/c++/6.3.0/bits" "c++allocator.h"
	.file	5 "/usr/bin/../lib/gcc/arm-linux-gnueabihf/6.3.0/../../../../include/c++/6.3.0/bits" "allocator.h"
	.file	6 "/usr/bin/../lib/gcc/arm-linux-gnueabihf/6.3.0/../../../../include/c++/6.3.0/ext" "alloc_traits.h"
	.file	7 "/usr/bin/../lib/gcc/arm-linux-gnueabihf/6.3.0/../../../../include/c++/6.3.0/bits" "stl_vector.h"
	.file	8 "/usr/bin/../lib/gcc/arm-linux-gnueabihf/6.3.0/../../../../include/c++/6.3.0" "type_traits"
	.file	9 "./libraries/Gui" "Gui.h"
	.file	10 "/usr/bin/../lib/gcc/arm-linux-gnueabihf/6.3.0/../../../../include/c++/6.3.0/bits" "unique_ptr.h"
	.file	11 "/usr/bin/../lib/gcc/arm-linux-gnueabihf/6.3.0/../../../../include/c++/6.3.0" "tuple"
	.file	12 "/usr/bin/../lib/gcc/arm-linux-gnueabihf/6.3.0/../../../../include/c++/6.3.0/bits" "uses_allocator.h"
	.file	13 "/usr/bin/../lib/gcc/arm-linux-gnueabihf/6.3.0/../../../../include/c++/6.3.0/bits" "stringfwd.h"
	.file	14 "/usr/bin/../lib/gcc/arm-linux-gnueabihf/6.3.0/../../../../include/c++/6.3.0/bits" "stl_function.h"
	.file	15 "/usr/bin/../lib/gcc/arm-linux-gnueabihf/6.3.0/../../../../include/c++/6.3.0" "functional"
	.file	16 "/usr/lib/llvm-3.9/bin/../lib/clang/3.9.1/include" "stddef.h"
	.file	17 "/root/Bela/projects/Guitar_Chorus_Effctor" "render.cpp"
	.file	18 "./libraries/GuiController" "GuiSlider.h"
	.file	19 "./include" "JSON.h"
	.file	20 "./libraries/GuiController" "GuiController.h"
	.file	21 "/root/Bela/projects/Guitar_Chorus_Effctor" "chorus.h"
	.file	22 "/usr/bin/../lib/gcc/arm-linux-gnueabihf/6.3.0/../../../../include/c++/6.3.0/ext" "concurrence.h"
	.file	23 "/usr/bin/../lib/gcc/arm-linux-gnueabihf/6.3.0/../../../../include/c++/6.3.0/bits" "basic_string.h"
	.file	24 "/usr/bin/../lib/gcc/arm-linux-gnueabihf/6.3.0/../../../../include/c++/6.3.0/bits" "char_traits.h"
	.file	25 "/usr/bin/../lib/gcc/arm-linux-gnueabihf/6.3.0/../../../../include/c++/6.3.0/debug" "debug.h"
	.file	26 "/usr/include" "wchar.h"
	.file	27 "/usr/include" "libio.h"
	.file	28 "/usr/include/arm-linux-gnueabihf/bits" "types.h"
	.file	29 "/usr/include" "stdio.h"
	.file	30 "/usr/lib/llvm-3.9/bin/../lib/clang/3.9.1/include" "stdarg.h"
	.file	31 "/usr/include" "time.h"
	.file	32 "/usr/include" "stdint.h"
	.file	33 "/usr/bin/../lib/gcc/arm-linux-gnueabihf/6.3.0/../../../../include/c++/6.3.0/bits" "exception_ptr.h"
	.file	34 "/usr/include" "locale.h"
	.file	35 "/usr/include" "ctype.h"
	.file	36 "/usr/include" "stdlib.h"
	.file	37 "/usr/include/arm-linux-gnueabihf/bits" "stdlib-float.h"
	.file	38 "/usr/include/arm-linux-gnueabihf/bits" "stdlib-bsearch.h"
	.file	39 "/usr/bin/../lib/gcc/arm-linux-gnueabihf/6.3.0/../../../../include/c++/6.3.0" "cstdlib"
	.file	40 "/usr/include" "_G_config.h"
	.file	41 "/usr/include/arm-linux-gnueabihf/bits" "stdio.h"
	.file	42 "/usr/include" "string.h"
	.file	43 "/usr/include" "wctype.h"
	.file	44 "/usr/include/arm-linux-gnueabihf/bits" "math-finite.h"
	.file	45 "/usr/include/arm-linux-gnueabihf/bits" "mathcalls.h"
	.file	46 "/usr/include/arm-linux-gnueabihf/bits" "mathdef.h"
	.section	.text._ZNSt6vectorIfSaIfEED2Ev,"axG",%progbits,_ZNSt6vectorIfSaIfEED2Ev,comdat
	.weak	_ZNSt6vectorIfSaIfEED2Ev
	.p2align	2
	.type	_ZNSt6vectorIfSaIfEED2Ev,%function
_ZNSt6vectorIfSaIfEED2Ev:               @ @_ZNSt6vectorIfSaIfEED2Ev
.Lfunc_begin0:
	.loc	7 426 0                 @ /usr/bin/../lib/gcc/arm-linux-gnueabihf/6.3.0/../../../../include/c++/6.3.0/bits/stl_vector.h:426:0
	.fnstart
	.cfi_startproc
@ BB#0:
	.save	{r4, r10, r11, lr}
	push	{r4, r10, r11, lr}
.Ltmp0:
	.cfi_def_cfa_offset 16
.Ltmp1:
	.cfi_offset lr, -4
.Ltmp2:
	.cfi_offset r11, -8
.Ltmp3:
	.cfi_offset r10, -12
.Ltmp4:
	.cfi_offset r4, -16
	.setfp	r11, sp, #8
	add	r11, sp, #8
.Ltmp5:
	.cfi_def_cfa r11, 8
	@DEBUG_VALUE: ~vector:this <- %R0
	mov	r4, r0
.Ltmp6:
	@DEBUG_VALUE: ~vector:this <- %R4
	.loc	7 160 37 prologue_end   @ /usr/bin/../lib/gcc/arm-linux-gnueabihf/6.3.0/../../../../include/c++/6.3.0/bits/stl_vector.h:160:37
	ldr	r0, [r4]
.Ltmp7:
	@DEBUG_VALUE: _M_deallocate:__p <- %R0
	@DEBUG_VALUE: deallocate:__p <- %R0
	@DEBUG_VALUE: deallocate:__p <- %R0
	.loc	7 177 6                 @ /usr/bin/../lib/gcc/arm-linux-gnueabihf/6.3.0/../../../../include/c++/6.3.0/bits/stl_vector.h:177:6
	cmp	r0, #0
	beq	.LBB0_2
.Ltmp8:
@ BB#1:
	@DEBUG_VALUE: deallocate:__p <- %R0
	@DEBUG_VALUE: deallocate:__p <- %R0
	@DEBUG_VALUE: _M_deallocate:__p <- %R0
	@DEBUG_VALUE: ~vector:this <- %R4
	.loc	3 110 9                 @ /usr/bin/../lib/gcc/arm-linux-gnueabihf/6.3.0/../../../../include/c++/6.3.0/ext/new_allocator.h:110:9
	bl	_ZdlPv
.Ltmp9:
.LBB0_2:                                @ %_ZNSt12_Vector_baseIfSaIfEED2Ev.exit
	@DEBUG_VALUE: ~vector:this <- %R4
	.loc	7 427 33 discriminator 1 @ /usr/bin/../lib/gcc/arm-linux-gnueabihf/6.3.0/../../../../include/c++/6.3.0/bits/stl_vector.h:427:33
	mov	r0, r4
	pop	{r4, r10, r11, pc}
.Ltmp10:
.Lfunc_end0:
	.size	_ZNSt6vectorIfSaIfEED2Ev, .Lfunc_end0-_ZNSt6vectorIfSaIfEED2Ev
	.cfi_endproc
	.fnend

	.text
	.globl	setup
	.p2align	2
	.type	setup,%function
setup:                                  @ @setup
.Lfunc_begin1:
	.loc	17 17 0                 @ /root/Bela/projects/Guitar_Chorus_Effctor/render.cpp:17:0
	.fnstart
	.cfi_startproc
@ BB#0:
	.save	{r4, r5, r6, r7, r8, r10, r11, lr}
	push	{r4, r5, r6, r7, r8, r10, r11, lr}
.Ltmp35:
	.cfi_def_cfa_offset 32
.Ltmp36:
	.cfi_offset lr, -4
.Ltmp37:
	.cfi_offset r11, -8
.Ltmp38:
	.cfi_offset r10, -12
.Ltmp39:
	.cfi_offset r8, -16
.Ltmp40:
	.cfi_offset r7, -20
.Ltmp41:
	.cfi_offset r6, -24
.Ltmp42:
	.cfi_offset r5, -28
.Ltmp43:
	.cfi_offset r4, -32
	.setfp	r11, sp, #24
	add	r11, sp, #24
.Ltmp44:
	.cfi_def_cfa r11, 8
	.pad	#168
	sub	sp, sp, #168
	@DEBUG_VALUE: setup:context <- %R0
	@DEBUG_VALUE: setup:userData <- %R1
.Ltmp45:
	.loc	17 18 21 prologue_end discriminator 1 @ /root/Bela/projects/Guitar_Chorus_Effctor/render.cpp:18:21
	movw	r7, :lower16:.L_MergedGlobals
	mov	r8, r0
.Ltmp46:
	@DEBUG_VALUE: setup:context <- %R8
	movt	r7, :upper16:.L_MergedGlobals
	add	r1, r7, #20
.Ltmp47:
	sub	r0, r11, #40
.Ltmp48:
	@DEBUG_VALUE: _M_move_assign:__x <- %R0
	@DEBUG_VALUE: operator=:__move_storage <- 1
	@DEBUG_VALUE: operator=:__x <- %R0
	bl	_ZN18AudioFileUtilities8loadMonoERKNSt7__cxx1112basic_stringIcSt11char_traitsIcESaIcEEE
.Ltmp49:
	mov	r4, #0
.Ltmp50:
	.file	47 "/usr/bin/../lib/gcc/arm-linux-gnueabihf/6.3.0/../../../../include/c++/6.3.0/bits" "move.h"
	.loc	47 190 19               @ /usr/bin/../lib/gcc/arm-linux-gnueabihf/6.3.0/../../../../include/c++/6.3.0/bits/move.h:190:19
	ldr	r0, [r7, #8]
.Ltmp51:
	@DEBUG_VALUE: _M_deallocate:__p <- %R0
	@DEBUG_VALUE: deallocate:__p <- %R0
	@DEBUG_VALUE: deallocate:__p <- %R0
	.loc	47 191 13               @ /usr/bin/../lib/gcc/arm-linux-gnueabihf/6.3.0/../../../../include/c++/6.3.0/bits/move.h:191:13
	ldr	r1, [r11, #-40]
	.loc	47 192 11               @ /usr/bin/../lib/gcc/arm-linux-gnueabihf/6.3.0/../../../../include/c++/6.3.0/bits/move.h:192:11
	str	r4, [r11, #-40]
.Ltmp52:
	.loc	7 177 6                 @ /usr/bin/../lib/gcc/arm-linux-gnueabihf/6.3.0/../../../../include/c++/6.3.0/bits/stl_vector.h:177:6
	cmp	r0, #0
.Ltmp53:
	.loc	47 191 11               @ /usr/bin/../lib/gcc/arm-linux-gnueabihf/6.3.0/../../../../include/c++/6.3.0/bits/move.h:191:11
	str	r1, [r7, #8]
.Ltmp54:
	.loc	47 191 13 is_stmt 0     @ /usr/bin/../lib/gcc/arm-linux-gnueabihf/6.3.0/../../../../include/c++/6.3.0/bits/move.h:191:13
	ldr	r1, [r11, #-36]
	.loc	47 192 11 is_stmt 1     @ /usr/bin/../lib/gcc/arm-linux-gnueabihf/6.3.0/../../../../include/c++/6.3.0/bits/move.h:192:11
	str	r4, [r11, #-36]
	.loc	47 191 11               @ /usr/bin/../lib/gcc/arm-linux-gnueabihf/6.3.0/../../../../include/c++/6.3.0/bits/move.h:191:11
	str	r1, [r7, #12]
.Ltmp55:
	.loc	47 191 13 is_stmt 0     @ /usr/bin/../lib/gcc/arm-linux-gnueabihf/6.3.0/../../../../include/c++/6.3.0/bits/move.h:191:13
	ldr	r1, [r11, #-32]
	.loc	47 191 11               @ /usr/bin/../lib/gcc/arm-linux-gnueabihf/6.3.0/../../../../include/c++/6.3.0/bits/move.h:191:11
	str	r1, [r7, #16]
	.loc	47 192 11 is_stmt 1     @ /usr/bin/../lib/gcc/arm-linux-gnueabihf/6.3.0/../../../../include/c++/6.3.0/bits/move.h:192:11
	str	r4, [r11, #-32]
	beq	.LBB1_3
.Ltmp56:
@ BB#1:                                 @ %_ZNSt6vectorIfSaIfEEaSEOS1_.exit
	@DEBUG_VALUE: deallocate:__p <- %R0
	@DEBUG_VALUE: deallocate:__p <- %R0
	@DEBUG_VALUE: _M_deallocate:__p <- %R0
	@DEBUG_VALUE: setup:context <- %R8
	.loc	3 110 9                 @ /usr/bin/../lib/gcc/arm-linux-gnueabihf/6.3.0/../../../../include/c++/6.3.0/ext/new_allocator.h:110:9
	bl	_ZdlPv
.Ltmp57:
	.loc	7 160 37                @ /usr/bin/../lib/gcc/arm-linux-gnueabihf/6.3.0/../../../../include/c++/6.3.0/bits/stl_vector.h:160:37
	ldr	r0, [r11, #-40]
.Ltmp58:
	@DEBUG_VALUE: _M_deallocate:__p <- %R0
	@DEBUG_VALUE: deallocate:__p <- %R0
	@DEBUG_VALUE: deallocate:__p <- %R0
	.loc	7 177 6                 @ /usr/bin/../lib/gcc/arm-linux-gnueabihf/6.3.0/../../../../include/c++/6.3.0/bits/stl_vector.h:177:6
	cmp	r0, #0
	beq	.LBB1_3
.Ltmp59:
@ BB#2:
	@DEBUG_VALUE: deallocate:__p <- %R0
	@DEBUG_VALUE: deallocate:__p <- %R0
	@DEBUG_VALUE: _M_deallocate:__p <- %R0
	@DEBUG_VALUE: setup:context <- %R8
	.loc	3 110 9                 @ /usr/bin/../lib/gcc/arm-linux-gnueabihf/6.3.0/../../../../include/c++/6.3.0/ext/new_allocator.h:110:9
	bl	_ZdlPv
.Ltmp60:
.LBB1_3:                                @ %_ZNSt6vectorIfSaIfEED2Ev.exit
	@DEBUG_VALUE: setup:context <- %R8
	.loc	7 656 66                @ /usr/bin/../lib/gcc/arm-linux-gnueabihf/6.3.0/../../../../include/c++/6.3.0/bits/stl_vector.h:656:66
	ldr	r0, [r7, #8]
	ldr	r3, [r7, #12]
.Ltmp61:
	.loc	23 136 28               @ /usr/bin/../lib/gcc/arm-linux-gnueabihf/6.3.0/../../../../include/c++/6.3.0/bits/basic_string.h:136:28
	ldr	r1, [r7, #20]
.Ltmp62:
	.loc	7 656 50                @ /usr/bin/../lib/gcc/arm-linux-gnueabihf/6.3.0/../../../../include/c++/6.3.0/bits/stl_vector.h:656:50
	sub	r0, r3, r0
.Ltmp63:
	.loc	17 20 9                 @ /root/Bela/projects/Guitar_Chorus_Effctor/render.cpp:20:9
	cmp	r4, r0, asr #2
	beq	.LBB1_7
.Ltmp64:
@ BB#4:
	@DEBUG_VALUE: setup:context <- %R8
	.loc	7 656 50                @ /usr/bin/../lib/gcc/arm-linux-gnueabihf/6.3.0/../../../../include/c++/6.3.0/bits/stl_vector.h:656:50
	asr	r2, r0, #2
.Ltmp65:
	.loc	17 28 47                @ /root/Bela/projects/Guitar_Chorus_Effctor/render.cpp:28:47
	vldr	s0, [r8, #32]
	.loc	17 28 15 is_stmt 0      @ /root/Bela/projects/Guitar_Chorus_Effctor/render.cpp:28:15
	vmov	s2, r2
	.loc	17 26 5 is_stmt 1       @ /root/Bela/projects/Guitar_Chorus_Effctor/render.cpp:26:5
	movw	r0, :lower16:.L.str.5
	.loc	17 28 15                @ /root/Bela/projects/Guitar_Chorus_Effctor/render.cpp:28:15
	vcvt.f32.u32	d1, d1
	.loc	17 26 5                 @ /root/Bela/projects/Guitar_Chorus_Effctor/render.cpp:26:5
	movt	r0, :upper16:.L.str.5
	.loc	17 28 36                @ /root/Bela/projects/Guitar_Chorus_Effctor/render.cpp:28:36
	vdiv.f32	s0, s2, s0
	.loc	17 28 15 is_stmt 0      @ /root/Bela/projects/Guitar_Chorus_Effctor/render.cpp:28:15
	vcvt.f64.f32	d16, s0
	.loc	17 26 5 is_stmt 1       @ /root/Bela/projects/Guitar_Chorus_Effctor/render.cpp:26:5
	vstr	d16, [sp]
	bl	rt_printf
	.loc	17 30 15                @ /root/Bela/projects/Guitar_Chorus_Effctor/render.cpp:30:15
	add	r5, r8, #92
.Ltmp66:
	@DEBUG_VALUE: basic_string:__s <- %R5
	@DEBUG_VALUE: length:__s <- %R5
	@DEBUG_VALUE: _M_construct<const char *>:__beg <- %R5
	@DEBUG_VALUE: _M_construct_aux<const char *>:__beg <- %R5
	@DEBUG_VALUE: _M_construct<const char *>:__beg <- %R5
	@DEBUG_VALUE: _S_copy_chars:__k1 <- %R5
	@DEBUG_VALUE: _S_copy:__s <- %R5
	@DEBUG_VALUE: assign:__c2 <- %R5
	sub	r0, r11, #64
.Ltmp67:
	@DEBUG_VALUE: _M_construct<const char *>:this <- %R0
	@DEBUG_VALUE: _M_construct_aux<const char *>:this <- %R0
	@DEBUG_VALUE: _M_construct<const char *>:this <- %R0
	@DEBUG_VALUE: _M_local_data:this <- %R0
	.loc	23 142 51               @ /usr/bin/../lib/gcc/arm-linux-gnueabihf/6.3.0/../../../../include/c++/6.3.0/bits/basic_string.h:142:51
	add	r4, r0, #8
.Ltmp68:
	.loc	23 110 25               @ /usr/bin/../lib/gcc/arm-linux-gnueabihf/6.3.0/../../../../include/c++/6.3.0/bits/basic_string.h:110:25
	str	r4, [r11, #-64]
.Ltmp69:
	.loc	24 267 16               @ /usr/bin/../lib/gcc/arm-linux-gnueabihf/6.3.0/../../../../include/c++/6.3.0/bits/char_traits.h:267:16
	mov	r0, r5
.Ltmp70:
	bl	strlen
	mov	r6, r0
.Ltmp71:
	@DEBUG_VALUE: _M_construct<const char *>:__dnew <- %R6
	@DEBUG_VALUE: _S_copy:__n <- %R6
	.file	48 "/usr/bin/../lib/gcc/arm-linux-gnueabihf/6.3.0/../../../../include/c++/6.3.0/bits" "basic_string.tcc"
	.loc	48 217 6                @ /usr/bin/../lib/gcc/arm-linux-gnueabihf/6.3.0/../../../../include/c++/6.3.0/bits/basic_string.tcc:217:6
	cmp	r6, #15
	.loc	48 215 12               @ /usr/bin/../lib/gcc/arm-linux-gnueabihf/6.3.0/../../../../include/c++/6.3.0/bits/basic_string.tcc:215:12
	str	r6, [r11, #-28]
	bls	.LBB1_8
.Ltmp72:
@ BB#5:                                 @ %.noexc8.i
	@DEBUG_VALUE: _S_copy:__n <- %R6
	@DEBUG_VALUE: _M_construct<const char *>:__dnew <- %R6
	@DEBUG_VALUE: assign:__c2 <- %R5
	@DEBUG_VALUE: _S_copy:__s <- %R5
	@DEBUG_VALUE: _S_copy_chars:__k1 <- %R5
	@DEBUG_VALUE: _M_construct<const char *>:__beg <- %R5
	@DEBUG_VALUE: _M_construct_aux<const char *>:__beg <- %R5
	@DEBUG_VALUE: _M_construct<const char *>:__beg <- %R5
	@DEBUG_VALUE: length:__s <- %R5
	@DEBUG_VALUE: basic_string:__s <- %R5
	@DEBUG_VALUE: setup:context <- %R8
	.loc	48 219 14               @ /usr/bin/../lib/gcc/arm-linux-gnueabihf/6.3.0/../../../../include/c++/6.3.0/bits/basic_string.tcc:219:14
.Ltmp11:
	sub	r0, r11, #64
	sub	r1, r11, #28
.Ltmp73:
	@DEBUG_VALUE: _M_construct<const char *>:__dnew <- [%R1+0]
	mov	r2, #0
	bl	_ZNSt7__cxx1112basic_stringIcSt11char_traitsIcESaIcEE9_M_createERjj
.Ltmp74:
.Ltmp12:
.Ltmp75:
@ BB#6:                                 @ %.noexc
	@DEBUG_VALUE: _S_copy:__n <- %R6
	@DEBUG_VALUE: assign:__c2 <- %R5
	@DEBUG_VALUE: _S_copy:__s <- %R5
	@DEBUG_VALUE: _S_copy_chars:__k1 <- %R5
	@DEBUG_VALUE: _M_construct<const char *>:__beg <- %R5
	@DEBUG_VALUE: _M_construct_aux<const char *>:__beg <- %R5
	@DEBUG_VALUE: _M_construct<const char *>:__beg <- %R5
	@DEBUG_VALUE: length:__s <- %R5
	@DEBUG_VALUE: basic_string:__s <- %R5
	@DEBUG_VALUE: setup:context <- %R8
	@DEBUG_VALUE: _M_data:__p <- %R0
	.loc	48 220 18               @ /usr/bin/../lib/gcc/arm-linux-gnueabihf/6.3.0/../../../../include/c++/6.3.0/bits/basic_string.tcc:220:18
	ldr	r1, [r11, #-28]
.Ltmp76:
	@DEBUG_VALUE: _M_capacity:__capacity <- %R1
	@DEBUG_VALUE: _M_construct<const char *>:__dnew <- %R1
	.loc	23 128 26               @ /usr/bin/../lib/gcc/arm-linux-gnueabihf/6.3.0/../../../../include/c++/6.3.0/bits/basic_string.h:128:26
	str	r0, [r11, #-64]
.Ltmp77:
	.loc	23 160 31               @ /usr/bin/../lib/gcc/arm-linux-gnueabihf/6.3.0/../../../../include/c++/6.3.0/bits/basic_string.h:160:31
	str	r1, [r11, #-56]
	b	.LBB1_9
.Ltmp78:
.LBB1_7:
	@DEBUG_VALUE: setup:context <- %R8
	.loc	17 22 9 discriminator 1 @ /root/Bela/projects/Guitar_Chorus_Effctor/render.cpp:22:9
	movw	r0, :lower16:.L.str.4
	movt	r0, :upper16:.L.str.4
	bl	rt_printf
	mov	r0, #0
.Ltmp79:
	.loc	17 42 1 discriminator 11 @ /root/Bela/projects/Guitar_Chorus_Effctor/render.cpp:42:1
	sub	sp, r11, #24
	pop	{r4, r5, r6, r7, r8, r10, r11, pc}
.Ltmp80:
.LBB1_8:                                @ %._crit_edge.i.i.i.i
	@DEBUG_VALUE: _S_copy:__n <- %R6
	@DEBUG_VALUE: _M_construct<const char *>:__dnew <- %R6
	@DEBUG_VALUE: assign:__c2 <- %R5
	@DEBUG_VALUE: _S_copy:__s <- %R5
	@DEBUG_VALUE: _S_copy_chars:__k1 <- %R5
	@DEBUG_VALUE: _M_construct<const char *>:__beg <- %R5
	@DEBUG_VALUE: _M_construct_aux<const char *>:__beg <- %R5
	@DEBUG_VALUE: _M_construct<const char *>:__beg <- %R5
	@DEBUG_VALUE: length:__s <- %R5
	@DEBUG_VALUE: basic_string:__s <- %R5
	@DEBUG_VALUE: setup:context <- %R8
	.loc	23 136 28               @ /usr/bin/../lib/gcc/arm-linux-gnueabihf/6.3.0/../../../../include/c++/6.3.0/bits/basic_string.h:136:28
	mov	r0, r4
.Ltmp81:
.LBB1_9:
	@DEBUG_VALUE: _S_copy:__n <- %R6
	@DEBUG_VALUE: assign:__c2 <- %R5
	@DEBUG_VALUE: _S_copy:__s <- %R5
	@DEBUG_VALUE: _S_copy_chars:__k1 <- %R5
	@DEBUG_VALUE: _M_construct<const char *>:__beg <- %R5
	@DEBUG_VALUE: _M_construct_aux<const char *>:__beg <- %R5
	@DEBUG_VALUE: _M_construct<const char *>:__beg <- %R5
	@DEBUG_VALUE: length:__s <- %R5
	@DEBUG_VALUE: basic_string:__s <- %R5
	@DEBUG_VALUE: setup:context <- %R8
	.loc	23 297 6                @ /usr/bin/../lib/gcc/arm-linux-gnueabihf/6.3.0/../../../../include/c++/6.3.0/bits/basic_string.h:297:6
	cmp	r6, #0
	beq	.LBB1_13
.Ltmp82:
@ BB#10:
	@DEBUG_VALUE: _S_copy:__n <- %R6
	@DEBUG_VALUE: assign:__c2 <- %R5
	@DEBUG_VALUE: _S_copy:__s <- %R5
	@DEBUG_VALUE: _S_copy_chars:__k1 <- %R5
	@DEBUG_VALUE: _M_construct<const char *>:__beg <- %R5
	@DEBUG_VALUE: _M_construct_aux<const char *>:__beg <- %R5
	@DEBUG_VALUE: _M_construct<const char *>:__beg <- %R5
	@DEBUG_VALUE: length:__s <- %R5
	@DEBUG_VALUE: basic_string:__s <- %R5
	@DEBUG_VALUE: setup:context <- %R8
	cmp	r6, #1
	bne	.LBB1_12
.Ltmp83:
@ BB#11:
	@DEBUG_VALUE: _S_copy:__n <- %R6
	@DEBUG_VALUE: assign:__c2 <- %R5
	@DEBUG_VALUE: _S_copy:__s <- %R5
	@DEBUG_VALUE: _S_copy_chars:__k1 <- %R5
	@DEBUG_VALUE: _M_construct<const char *>:__beg <- %R5
	@DEBUG_VALUE: _M_construct_aux<const char *>:__beg <- %R5
	@DEBUG_VALUE: _M_construct<const char *>:__beg <- %R5
	@DEBUG_VALUE: length:__s <- %R5
	@DEBUG_VALUE: basic_string:__s <- %R5
	@DEBUG_VALUE: setup:context <- %R8
	.loc	24 243 16               @ /usr/bin/../lib/gcc/arm-linux-gnueabihf/6.3.0/../../../../include/c++/6.3.0/bits/char_traits.h:243:16
	ldrb	r1, [r5]
.Ltmp84:
	@DEBUG_VALUE: _S_copy_chars:__p <- %R0
	.loc	24 243 14 is_stmt 0     @ /usr/bin/../lib/gcc/arm-linux-gnueabihf/6.3.0/../../../../include/c++/6.3.0/bits/char_traits.h:243:14
	strb	r1, [r0]
	b	.LBB1_13
.Ltmp85:
.LBB1_12:
	@DEBUG_VALUE: _S_copy:__n <- %R6
	@DEBUG_VALUE: assign:__c2 <- %R5
	@DEBUG_VALUE: _S_copy:__s <- %R5
	@DEBUG_VALUE: _S_copy_chars:__k1 <- %R5
	@DEBUG_VALUE: _M_construct<const char *>:__beg <- %R5
	@DEBUG_VALUE: _M_construct_aux<const char *>:__beg <- %R5
	@DEBUG_VALUE: _M_construct<const char *>:__beg <- %R5
	@DEBUG_VALUE: length:__s <- %R5
	@DEBUG_VALUE: basic_string:__s <- %R5
	@DEBUG_VALUE: setup:context <- %R8
	.loc	24 290 33 is_stmt 1     @ /usr/bin/../lib/gcc/arm-linux-gnueabihf/6.3.0/../../../../include/c++/6.3.0/bits/char_traits.h:290:33
	mov	r1, r5
	mov	r2, r6
	bl	memcpy
.Ltmp86:
.LBB1_13:                               @ %._crit_edge.i.i.i.i18
	@DEBUG_VALUE: _S_copy:__n <- %R6
	@DEBUG_VALUE: assign:__c2 <- %R5
	@DEBUG_VALUE: _S_copy:__s <- %R5
	@DEBUG_VALUE: _S_copy_chars:__k1 <- %R5
	@DEBUG_VALUE: _M_construct<const char *>:__beg <- %R5
	@DEBUG_VALUE: _M_construct_aux<const char *>:__beg <- %R5
	@DEBUG_VALUE: _M_construct<const char *>:__beg <- %R5
	@DEBUG_VALUE: length:__s <- %R5
	@DEBUG_VALUE: basic_string:__s <- %R5
	@DEBUG_VALUE: setup:context <- %R8
	.loc	48 232 16               @ /usr/bin/../lib/gcc/arm-linux-gnueabihf/6.3.0/../../../../include/c++/6.3.0/bits/basic_string.tcc:232:16
	ldr	r0, [r11, #-28]
.Ltmp87:
	@DEBUG_VALUE: _M_set_length:__n <- %R0
	@DEBUG_VALUE: _M_length:__length <- %R0
	@DEBUG_VALUE: _M_construct<const char *>:__dnew <- %R0
	.loc	24 243 14               @ /usr/bin/../lib/gcc/arm-linux-gnueabihf/6.3.0/../../../../include/c++/6.3.0/bits/char_traits.h:243:14
	mov	r2, #0
.Ltmp88:
	.loc	23 132 26               @ /usr/bin/../lib/gcc/arm-linux-gnueabihf/6.3.0/../../../../include/c++/6.3.0/bits/basic_string.h:132:26
	str	r0, [r11, #-60]
	sub	r3, r11, #88
.Ltmp89:
	@DEBUG_VALUE: _M_data:this <- %R3
	@DEBUG_VALUE: _M_length:this <- %R3
	@DEBUG_VALUE: _M_set_length:__n <- 3
	@DEBUG_VALUE: _M_set_length:this <- %R3
	@DEBUG_VALUE: _M_data:this <- %R3
	@DEBUG_VALUE: _M_construct<const char *>:__dnew <- 3
	@DEBUG_VALUE: _M_construct<const char *>:this <- %R3
	@DEBUG_VALUE: _M_construct_aux<const char *>:this <- %R3
	@DEBUG_VALUE: _M_construct<const char *>:this <- %R3
	@DEBUG_VALUE: _S_copy_chars:__p <- %R5
	@DEBUG_VALUE: _S_copy:__d <- %R5
	@DEBUG_VALUE: _M_local_data:this <- %R3
	.loc	23 136 28               @ /usr/bin/../lib/gcc/arm-linux-gnueabihf/6.3.0/../../../../include/c++/6.3.0/bits/basic_string.h:136:28
	ldr	r1, [r11, #-64]
.Ltmp90:
	.loc	23 142 51               @ /usr/bin/../lib/gcc/arm-linux-gnueabihf/6.3.0/../../../../include/c++/6.3.0/bits/basic_string.h:142:51
	add	r5, r3, #8
.Ltmp91:
	.loc	24 243 14               @ /usr/bin/../lib/gcc/arm-linux-gnueabihf/6.3.0/../../../../include/c++/6.3.0/bits/char_traits.h:243:14
	strb	r2, [r1, r0]
.Ltmp92:
	.loc	24 290 33               @ /usr/bin/../lib/gcc/arm-linux-gnueabihf/6.3.0/../../../../include/c++/6.3.0/bits/char_traits.h:290:33
	mov	r0, #105
.Ltmp93:
	@DEBUG_VALUE: _S_copy:__n <- 3
	.loc	23 110 25               @ /usr/bin/../lib/gcc/arm-linux-gnueabihf/6.3.0/../../../../include/c++/6.3.0/bits/basic_string.h:110:25
	str	r5, [r11, #-88]
.Ltmp94:
	.loc	24 290 33               @ /usr/bin/../lib/gcc/arm-linux-gnueabihf/6.3.0/../../../../include/c++/6.3.0/bits/char_traits.h:290:33
	strb	r0, [r11, #-78]
	movw	r0, #30055
	strh	r0, [r11, #-80]
	mov	r0, #3
.Ltmp95:
	@DEBUG_VALUE: _M_length:__length <- 3
	.loc	23 132 26               @ /usr/bin/../lib/gcc/arm-linux-gnueabihf/6.3.0/../../../../include/c++/6.3.0/bits/basic_string.h:132:26
	str	r0, [r11, #-84]
.Ltmp96:
	.loc	24 243 14               @ /usr/bin/../lib/gcc/arm-linux-gnueabihf/6.3.0/../../../../include/c++/6.3.0/bits/char_traits.h:243:14
	strb	r2, [r11, #-77]
.Ltmp97:
	.loc	17 30 9 discriminator 2 @ /root/Bela/projects/Guitar_Chorus_Effctor/render.cpp:30:9
.Ltmp14:
	movw	r0, :lower16:gui
	sub	r1, r11, #64
.Ltmp98:
	@DEBUG_VALUE: _M_data:this <- %R1
	@DEBUG_VALUE: _M_length:this <- %R1
	movt	r0, :upper16:gui
	movw	r2, #5555
	bl	_ZN3Gui5setupENSt7__cxx1112basic_stringIcSt11char_traitsIcESaIcEEEjS5_
.Ltmp99:
.Ltmp15:
.Ltmp100:
@ BB#14:
	@DEBUG_VALUE: _S_copy:__n <- %R6
	@DEBUG_VALUE: setup:context <- %R8
	.loc	23 136 28               @ /usr/bin/../lib/gcc/arm-linux-gnueabihf/6.3.0/../../../../include/c++/6.3.0/bits/basic_string.h:136:28
	ldr	r0, [r11, #-88]
.Ltmp101:
	@DEBUG_VALUE: deallocate:__p <- %R0
	@DEBUG_VALUE: deallocate:__p <- %R0
	.loc	23 180 6                @ /usr/bin/../lib/gcc/arm-linux-gnueabihf/6.3.0/../../../../include/c++/6.3.0/bits/basic_string.h:180:6
	cmp	r0, r5
	beq	.LBB1_16
.Ltmp102:
@ BB#15:
	@DEBUG_VALUE: deallocate:__p <- %R0
	@DEBUG_VALUE: deallocate:__p <- %R0
	@DEBUG_VALUE: _S_copy:__n <- %R6
	@DEBUG_VALUE: setup:context <- %R8
	.loc	3 110 9                 @ /usr/bin/../lib/gcc/arm-linux-gnueabihf/6.3.0/../../../../include/c++/6.3.0/ext/new_allocator.h:110:9
	bl	_ZdlPv
.Ltmp103:
.LBB1_16:                               @ %_ZNSt7__cxx1112basic_stringIcSt11char_traitsIcESaIcEED2Ev.exit23
	@DEBUG_VALUE: _S_copy:__n <- %R6
	@DEBUG_VALUE: setup:context <- %R8
	.loc	23 136 28               @ /usr/bin/../lib/gcc/arm-linux-gnueabihf/6.3.0/../../../../include/c++/6.3.0/bits/basic_string.h:136:28
	ldr	r0, [r11, #-64]
.Ltmp104:
	@DEBUG_VALUE: deallocate:__p <- %R0
	@DEBUG_VALUE: deallocate:__p <- %R0
	.loc	23 180 6                @ /usr/bin/../lib/gcc/arm-linux-gnueabihf/6.3.0/../../../../include/c++/6.3.0/bits/basic_string.h:180:6
	cmp	r0, r4
	beq	.LBB1_18
.Ltmp105:
@ BB#17:
	@DEBUG_VALUE: deallocate:__p <- %R0
	@DEBUG_VALUE: deallocate:__p <- %R0
	@DEBUG_VALUE: _S_copy:__n <- %R6
	@DEBUG_VALUE: setup:context <- %R8
	.loc	3 110 9                 @ /usr/bin/../lib/gcc/arm-linux-gnueabihf/6.3.0/../../../../include/c++/6.3.0/ext/new_allocator.h:110:9
	bl	_ZdlPv
.Ltmp106:
.LBB1_18:                               @ %_ZNSt7__cxx1112basic_stringIcSt11char_traitsIcESaIcEED2Ev.exit24
	@DEBUG_VALUE: _S_copy:__n <- %R6
	@DEBUG_VALUE: setup:context <- %R8
	add	r0, sp, #80
.Ltmp107:
	@DEBUG_VALUE: _M_construct<const char *>:this <- %R0
	@DEBUG_VALUE: _M_construct_aux<const char *>:this <- %R0
	@DEBUG_VALUE: _M_construct<const char *>:this <- %R0
	@DEBUG_VALUE: _M_local_data:this <- %R0
	.loc	48 215 12               @ /usr/bin/../lib/gcc/arm-linux-gnueabihf/6.3.0/../../../../include/c++/6.3.0/bits/basic_string.tcc:215:12
	mov	r1, #17
.Ltmp108:
	@DEBUG_VALUE: _M_construct<const char *>:__dnew <- 17
	.loc	23 142 51               @ /usr/bin/../lib/gcc/arm-linux-gnueabihf/6.3.0/../../../../include/c++/6.3.0/bits/basic_string.h:142:51
	add	r4, r0, #8
.Ltmp109:
	.loc	23 110 25               @ /usr/bin/../lib/gcc/arm-linux-gnueabihf/6.3.0/../../../../include/c++/6.3.0/bits/basic_string.h:110:25
	str	r4, [sp, #80]
.Ltmp110:
	.loc	48 215 12               @ /usr/bin/../lib/gcc/arm-linux-gnueabihf/6.3.0/../../../../include/c++/6.3.0/bits/basic_string.tcc:215:12
	str	r1, [r11, #-40]
.Ltmp111:
	.loc	48 219 14               @ /usr/bin/../lib/gcc/arm-linux-gnueabihf/6.3.0/../../../../include/c++/6.3.0/bits/basic_string.tcc:219:14
.Ltmp17:
	sub	r1, r11, #40
.Ltmp112:
	@DEBUG_VALUE: _M_construct<const char *>:__dnew <- [%R1+0]
	mov	r2, #0
	mov	r5, #0
	bl	_ZNSt7__cxx1112basic_stringIcSt11char_traitsIcESaIcEE9_M_createERjj
.Ltmp113:
.Ltmp18:
.Ltmp114:
@ BB#19:                                @ %.noexc31
	@DEBUG_VALUE: _S_copy:__n <- %R6
	@DEBUG_VALUE: setup:context <- %R8
	.loc	24 290 33               @ /usr/bin/../lib/gcc/arm-linux-gnueabihf/6.3.0/../../../../include/c++/6.3.0/bits/char_traits.h:290:33
	movw	r2, :lower16:.L.str.7
.Ltmp115:
	.loc	48 220 18               @ /usr/bin/../lib/gcc/arm-linux-gnueabihf/6.3.0/../../../../include/c++/6.3.0/bits/basic_string.tcc:220:18
	ldr	r1, [r11, #-40]
.Ltmp116:
	@DEBUG_VALUE: _M_capacity:__capacity <- %R1
	@DEBUG_VALUE: _M_set_length:__n <- %R1
	@DEBUG_VALUE: _M_length:__length <- %R1
	@DEBUG_VALUE: _M_construct<const char *>:__dnew <- %R1
	.loc	24 290 33               @ /usr/bin/../lib/gcc/arm-linux-gnueabihf/6.3.0/../../../../include/c++/6.3.0/bits/char_traits.h:290:33
	movt	r2, :upper16:.L.str.7
	vld1.64	{d16, d17}, [r2]
	mov	r2, #114
.Ltmp117:
	.loc	23 128 26               @ /usr/bin/../lib/gcc/arm-linux-gnueabihf/6.3.0/../../../../include/c++/6.3.0/bits/basic_string.h:128:26
	str	r0, [sp, #80]
.Ltmp118:
	@DEBUG_VALUE: _M_data:__p <- %R0
	.loc	23 160 31               @ /usr/bin/../lib/gcc/arm-linux-gnueabihf/6.3.0/../../../../include/c++/6.3.0/bits/basic_string.h:160:31
	str	r1, [sp, #88]
.Ltmp119:
	@DEBUG_VALUE: _S_copy:__d <- %R0
	@DEBUG_VALUE: _S_copy:__n <- 17
	.loc	24 290 33               @ /usr/bin/../lib/gcc/arm-linux-gnueabihf/6.3.0/../../../../include/c++/6.3.0/bits/char_traits.h:290:33
	vst1.8	{d16, d17}, [r0]!
.Ltmp120:
	strb	r2, [r0]
.Ltmp121:
	.loc	23 132 26               @ /usr/bin/../lib/gcc/arm-linux-gnueabihf/6.3.0/../../../../include/c++/6.3.0/bits/basic_string.h:132:26
	str	r1, [sp, #84]
.Ltmp122:
	.loc	23 136 28               @ /usr/bin/../lib/gcc/arm-linux-gnueabihf/6.3.0/../../../../include/c++/6.3.0/bits/basic_string.h:136:28
	ldr	r0, [sp, #80]
.Ltmp123:
	.loc	24 243 14               @ /usr/bin/../lib/gcc/arm-linux-gnueabihf/6.3.0/../../../../include/c++/6.3.0/bits/char_traits.h:243:14
	strb	r5, [r0, r1]
.Ltmp124:
	.loc	17 31 20 discriminator 1 @ /root/Bela/projects/Guitar_Chorus_Effctor/render.cpp:31:20
.Ltmp20:
	add	r5, r7, #44
	movw	r1, :lower16:gui
.Ltmp125:
	add	r2, sp, #80
.Ltmp126:
	@DEBUG_VALUE: _M_data:this <- %R2
	@DEBUG_VALUE: _M_length:this <- %R2
	@DEBUG_VALUE: _M_set_length:this <- %R2
	@DEBUG_VALUE: _M_data:this <- %R2
	@DEBUG_VALUE: _M_capacity:this <- %R2
	@DEBUG_VALUE: _M_data:this <- %R2
	movt	r1, :upper16:gui
	mov	r0, r5
	bl	_ZN13GuiController5setupEP3GuiNSt7__cxx1112basic_stringIcSt11char_traitsIcESaIcEEE
.Ltmp127:
.Ltmp21:
.Ltmp128:
	@DEBUG_VALUE: _S_copy:__s <- %R2
@ BB#20:
	@DEBUG_VALUE: _S_copy:__s <- %R2
	@DEBUG_VALUE: _S_copy:__n <- %R6
	@DEBUG_VALUE: setup:context <- %R8
	.loc	23 136 28               @ /usr/bin/../lib/gcc/arm-linux-gnueabihf/6.3.0/../../../../include/c++/6.3.0/bits/basic_string.h:136:28
	ldr	r0, [sp, #80]
.Ltmp129:
	@DEBUG_VALUE: deallocate:__p <- %R0
	@DEBUG_VALUE: deallocate:__p <- %R0
	.loc	23 180 6                @ /usr/bin/../lib/gcc/arm-linux-gnueabihf/6.3.0/../../../../include/c++/6.3.0/bits/basic_string.h:180:6
	cmp	r0, r4
	beq	.LBB1_22
.Ltmp130:
@ BB#21:
	@DEBUG_VALUE: deallocate:__p <- %R0
	@DEBUG_VALUE: deallocate:__p <- %R0
	@DEBUG_VALUE: _S_copy:__s <- %R2
	@DEBUG_VALUE: _S_copy:__n <- %R6
	@DEBUG_VALUE: setup:context <- %R8
	.loc	3 110 9                 @ /usr/bin/../lib/gcc/arm-linux-gnueabihf/6.3.0/../../../../include/c++/6.3.0/ext/new_allocator.h:110:9
	bl	_ZdlPv
.Ltmp131:
.LBB1_22:                               @ %_ZNSt7__cxx1112basic_stringIcSt11char_traitsIcESaIcEED2Ev.exit33
	@DEBUG_VALUE: _S_copy:__n <- %R6
	@DEBUG_VALUE: setup:context <- %R8
	.loc	24 290 33               @ /usr/bin/../lib/gcc/arm-linux-gnueabihf/6.3.0/../../../../include/c++/6.3.0/bits/char_traits.h:290:33
	movw	r0, :lower16:.L.str.8
	add	r1, sp, #56
.Ltmp132:
	@DEBUG_VALUE: _M_data:this <- %R1
	@DEBUG_VALUE: _M_length:this <- %R1
	@DEBUG_VALUE: _M_set_length:__n <- 9
	@DEBUG_VALUE: _M_set_length:this <- %R1
	@DEBUG_VALUE: _M_data:this <- %R1
	@DEBUG_VALUE: _M_construct<const char *>:__dnew <- 9
	@DEBUG_VALUE: _M_construct<const char *>:this <- %R1
	@DEBUG_VALUE: _M_construct_aux<const char *>:this <- %R1
	@DEBUG_VALUE: _M_construct<const char *>:this <- %R1
	@DEBUG_VALUE: _S_copy_chars:__p <- %R4
	@DEBUG_VALUE: _S_copy:__d <- %R4
	@DEBUG_VALUE: _M_local_data:this <- %R1
	movt	r0, :upper16:.L.str.8
.Ltmp133:
	.loc	23 142 51               @ /usr/bin/../lib/gcc/arm-linux-gnueabihf/6.3.0/../../../../include/c++/6.3.0/bits/basic_string.h:142:51
	add	r4, r1, #8
.Ltmp134:
	.loc	24 290 33               @ /usr/bin/../lib/gcc/arm-linux-gnueabihf/6.3.0/../../../../include/c++/6.3.0/bits/char_traits.h:290:33
	vldr	d16, [r0]
	mov	r0, #108
	mov	r2, #0
	mov	r3, #9
.Ltmp135:
	.loc	23 110 25               @ /usr/bin/../lib/gcc/arm-linux-gnueabihf/6.3.0/../../../../include/c++/6.3.0/bits/basic_string.h:110:25
	str	r4, [sp, #56]
.Ltmp136:
	.loc	17 34 20 discriminator 1 @ /root/Bela/projects/Guitar_Chorus_Effctor/render.cpp:34:20
	vmov.i32	d2, #0x0
.Ltmp137:
	.loc	24 290 33               @ /usr/bin/../lib/gcc/arm-linux-gnueabihf/6.3.0/../../../../include/c++/6.3.0/bits/char_traits.h:290:33
	strb	r0, [sp, #72]
	vstr	d16, [sp, #64]
.Ltmp138:
	@DEBUG_VALUE: _M_length:__length <- 9
	.loc	23 132 26               @ /usr/bin/../lib/gcc/arm-linux-gnueabihf/6.3.0/../../../../include/c++/6.3.0/bits/basic_string.h:132:26
	str	r3, [sp, #60]
.Ltmp139:
	.loc	17 34 20 discriminator 1 @ /root/Bela/projects/Guitar_Chorus_Effctor/render.cpp:34:20
	vldr	s0, .LCPI1_0
.Ltmp140:
	@DEBUG_VALUE: _S_copy:__n <- 9
	vldr	s2, .LCPI1_1
.Ltmp141:
	.loc	24 243 14               @ /usr/bin/../lib/gcc/arm-linux-gnueabihf/6.3.0/../../../../include/c++/6.3.0/bits/char_traits.h:243:14
	strb	r2, [sp, #73]
.Ltmp142:
	.loc	17 34 20 discriminator 1 @ /root/Bela/projects/Guitar_Chorus_Effctor/render.cpp:34:20
.Ltmp23:
	vmov.f32	s1, s4
	mov	r0, r5
	vmov.f32	s3, s4
	bl	_ZN13GuiController9addSliderENSt7__cxx1112basic_stringIcSt11char_traitsIcESaIcEEEffff
.Ltmp143:
.Ltmp24:
.Ltmp144:
	@DEBUG_VALUE: _S_copy:__s <- %R0
@ BB#23:
	@DEBUG_VALUE: _S_copy:__s <- %R0
	@DEBUG_VALUE: _S_copy:__n <- %R6
	@DEBUG_VALUE: setup:context <- %R8
	.loc	23 136 28               @ /usr/bin/../lib/gcc/arm-linux-gnueabihf/6.3.0/../../../../include/c++/6.3.0/bits/basic_string.h:136:28
	ldr	r0, [sp, #56]
.Ltmp145:
	@DEBUG_VALUE: deallocate:__p <- %R0
	@DEBUG_VALUE: deallocate:__p <- %R0
	.loc	23 180 6                @ /usr/bin/../lib/gcc/arm-linux-gnueabihf/6.3.0/../../../../include/c++/6.3.0/bits/basic_string.h:180:6
	cmp	r0, r4
	beq	.LBB1_25
.Ltmp146:
@ BB#24:
	@DEBUG_VALUE: deallocate:__p <- %R0
	@DEBUG_VALUE: deallocate:__p <- %R0
	@DEBUG_VALUE: _S_copy:__n <- %R6
	@DEBUG_VALUE: setup:context <- %R8
	.loc	3 110 9                 @ /usr/bin/../lib/gcc/arm-linux-gnueabihf/6.3.0/../../../../include/c++/6.3.0/ext/new_allocator.h:110:9
	bl	_ZdlPv
.Ltmp147:
.LBB1_25:                               @ %_ZNSt7__cxx1112basic_stringIcSt11char_traitsIcESaIcEED2Ev.exit46
	@DEBUG_VALUE: _S_copy:__n <- %R6
	@DEBUG_VALUE: setup:context <- %R8
	.loc	24 290 33               @ /usr/bin/../lib/gcc/arm-linux-gnueabihf/6.3.0/../../../../include/c++/6.3.0/bits/char_traits.h:290:33
	movw	r0, :lower16:.L.str.9
	add	r1, sp, #32
.Ltmp148:
	@DEBUG_VALUE: _M_data:this <- %R1
	@DEBUG_VALUE: _M_length:this <- %R1
	@DEBUG_VALUE: _M_set_length:__n <- 10
	@DEBUG_VALUE: _M_set_length:this <- %R1
	@DEBUG_VALUE: _M_data:this <- %R1
	@DEBUG_VALUE: _M_construct<const char *>:__dnew <- 10
	@DEBUG_VALUE: _M_construct<const char *>:this <- %R1
	@DEBUG_VALUE: _M_construct_aux<const char *>:this <- %R1
	@DEBUG_VALUE: _M_construct<const char *>:this <- %R1
	@DEBUG_VALUE: _S_copy_chars:__p <- %R4
	@DEBUG_VALUE: _S_copy:__d <- %R4
	@DEBUG_VALUE: _M_local_data:this <- %R1
	movt	r0, :upper16:.L.str.9
.Ltmp149:
	.loc	23 142 51               @ /usr/bin/../lib/gcc/arm-linux-gnueabihf/6.3.0/../../../../include/c++/6.3.0/bits/basic_string.h:142:51
	add	r4, r1, #8
.Ltmp150:
	.loc	24 290 33               @ /usr/bin/../lib/gcc/arm-linux-gnueabihf/6.3.0/../../../../include/c++/6.3.0/bits/char_traits.h:290:33
	vldr	d16, [r0]
	movw	r0, #25965
	mov	r2, #0
	mov	r3, #10
.Ltmp151:
	.loc	23 110 25               @ /usr/bin/../lib/gcc/arm-linux-gnueabihf/6.3.0/../../../../include/c++/6.3.0/bits/basic_string.h:110:25
	str	r4, [sp, #32]
.Ltmp152:
	.loc	17 35 20 discriminator 1 @ /root/Bela/projects/Guitar_Chorus_Effctor/render.cpp:35:20
	vmov.i32	d2, #0x0
.Ltmp153:
	.loc	24 290 33               @ /usr/bin/../lib/gcc/arm-linux-gnueabihf/6.3.0/../../../../include/c++/6.3.0/bits/char_traits.h:290:33
	strh	r0, [sp, #48]
	vstr	d16, [sp, #40]
.Ltmp154:
	@DEBUG_VALUE: _M_length:__length <- 10
	.loc	23 132 26               @ /usr/bin/../lib/gcc/arm-linux-gnueabihf/6.3.0/../../../../include/c++/6.3.0/bits/basic_string.h:132:26
	str	r3, [sp, #36]
.Ltmp155:
	.loc	17 35 20 discriminator 1 @ /root/Bela/projects/Guitar_Chorus_Effctor/render.cpp:35:20
	vldr	s0, .LCPI1_2
.Ltmp156:
	@DEBUG_VALUE: _S_copy:__n <- 10
	vldr	s2, .LCPI1_3
.Ltmp157:
	.loc	24 243 14               @ /usr/bin/../lib/gcc/arm-linux-gnueabihf/6.3.0/../../../../include/c++/6.3.0/bits/char_traits.h:243:14
	strb	r2, [sp, #50]
.Ltmp158:
	.loc	17 35 20 discriminator 1 @ /root/Bela/projects/Guitar_Chorus_Effctor/render.cpp:35:20
.Ltmp26:
	vmov.f32	s1, s0
	mov	r0, r5
	vmov.f32	s3, s4
	bl	_ZN13GuiController9addSliderENSt7__cxx1112basic_stringIcSt11char_traitsIcESaIcEEEffff
.Ltmp159:
.Ltmp27:
.Ltmp160:
	@DEBUG_VALUE: _S_copy:__s <- %R0
@ BB#26:
	@DEBUG_VALUE: _S_copy:__s <- %R0
	@DEBUG_VALUE: _S_copy:__n <- %R6
	@DEBUG_VALUE: setup:context <- %R8
	.loc	23 136 28               @ /usr/bin/../lib/gcc/arm-linux-gnueabihf/6.3.0/../../../../include/c++/6.3.0/bits/basic_string.h:136:28
	ldr	r0, [sp, #32]
.Ltmp161:
	@DEBUG_VALUE: deallocate:__p <- %R0
	@DEBUG_VALUE: deallocate:__p <- %R0
	.loc	23 180 6                @ /usr/bin/../lib/gcc/arm-linux-gnueabihf/6.3.0/../../../../include/c++/6.3.0/bits/basic_string.h:180:6
	cmp	r0, r4
	beq	.LBB1_28
.Ltmp162:
@ BB#27:
	@DEBUG_VALUE: deallocate:__p <- %R0
	@DEBUG_VALUE: deallocate:__p <- %R0
	@DEBUG_VALUE: _S_copy:__n <- %R6
	@DEBUG_VALUE: setup:context <- %R8
	.loc	3 110 9                 @ /usr/bin/../lib/gcc/arm-linux-gnueabihf/6.3.0/../../../../include/c++/6.3.0/ext/new_allocator.h:110:9
	bl	_ZdlPv
.Ltmp163:
.LBB1_28:                               @ %_ZNSt7__cxx1112basic_stringIcSt11char_traitsIcESaIcEED2Ev.exit53
	@DEBUG_VALUE: _S_copy:__n <- %R6
	@DEBUG_VALUE: setup:context <- %R8
	.loc	24 290 33               @ /usr/bin/../lib/gcc/arm-linux-gnueabihf/6.3.0/../../../../include/c++/6.3.0/bits/char_traits.h:290:33
	movw	r2, :lower16:.L.str.10
	add	r1, sp, #8
.Ltmp164:
	@DEBUG_VALUE: _M_data:this <- %R1
	@DEBUG_VALUE: _M_length:this <- %R1
	@DEBUG_VALUE: _M_set_length:__n <- 13
	@DEBUG_VALUE: _M_set_length:this <- %R1
	@DEBUG_VALUE: _M_data:this <- %R1
	@DEBUG_VALUE: _M_construct<const char *>:__dnew <- 13
	@DEBUG_VALUE: _M_construct<const char *>:this <- %R1
	@DEBUG_VALUE: _M_construct_aux<const char *>:this <- %R1
	@DEBUG_VALUE: _M_construct<const char *>:this <- %R1
	@DEBUG_VALUE: _S_copy_chars:__p <- %R4
	@DEBUG_VALUE: _S_copy:__d <- %R4
	@DEBUG_VALUE: _M_local_data:this <- %R1
	movt	r2, :upper16:.L.str.10
	add	r3, r2, #5
.Ltmp165:
	.loc	23 142 51               @ /usr/bin/../lib/gcc/arm-linux-gnueabihf/6.3.0/../../../../include/c++/6.3.0/bits/basic_string.h:142:51
	add	r4, r1, #8
.Ltmp166:
	.loc	24 290 33               @ /usr/bin/../lib/gcc/arm-linux-gnueabihf/6.3.0/../../../../include/c++/6.3.0/bits/char_traits.h:290:33
	vldr	d17, [r2]
	vld1.8	{d16}, [r3]
	add	r3, r1, #13
	mov	r0, #0
	mov	r2, #13
.Ltmp167:
	.loc	23 110 25               @ /usr/bin/../lib/gcc/arm-linux-gnueabihf/6.3.0/../../../../include/c++/6.3.0/bits/basic_string.h:110:25
	str	r4, [sp, #8]
.Ltmp168:
	@DEBUG_VALUE: _S_copy:__n <- 13
	.loc	17 36 20 discriminator 1 @ /root/Bela/projects/Guitar_Chorus_Effctor/render.cpp:36:20
	vmov.i32	d2, #0x0
.Ltmp169:
	.loc	24 290 33               @ /usr/bin/../lib/gcc/arm-linux-gnueabihf/6.3.0/../../../../include/c++/6.3.0/bits/char_traits.h:290:33
	vst1.8	{d16}, [r3]
	vstr	d17, [sp, #16]
.Ltmp170:
	@DEBUG_VALUE: _M_length:__length <- 13
	.loc	23 132 26               @ /usr/bin/../lib/gcc/arm-linux-gnueabihf/6.3.0/../../../../include/c++/6.3.0/bits/basic_string.h:132:26
	str	r2, [sp, #12]
.Ltmp171:
	.loc	17 36 20 discriminator 1 @ /root/Bela/projects/Guitar_Chorus_Effctor/render.cpp:36:20
	vldr	s0, .LCPI1_4
.Ltmp172:
	.loc	24 243 14               @ /usr/bin/../lib/gcc/arm-linux-gnueabihf/6.3.0/../../../../include/c++/6.3.0/bits/char_traits.h:243:14
	strb	r0, [sp, #29]
.Ltmp173:
	.loc	17 36 20 discriminator 1 @ /root/Bela/projects/Guitar_Chorus_Effctor/render.cpp:36:20
.Ltmp29:
	vmov.f32	d1, #3.000000e+00
	mov	r0, r5
	vmov.f32	s1, s0
	vmov.f32	s3, s4
	bl	_ZN13GuiController9addSliderENSt7__cxx1112basic_stringIcSt11char_traitsIcESaIcEEEffff
.Ltmp174:
.Ltmp30:
.Ltmp175:
	@DEBUG_VALUE: _S_copy:__s <- %R2
@ BB#29:
	@DEBUG_VALUE: _S_copy:__s <- %R2
	@DEBUG_VALUE: _S_copy:__n <- %R6
	@DEBUG_VALUE: setup:context <- %R8
	.loc	23 136 28               @ /usr/bin/../lib/gcc/arm-linux-gnueabihf/6.3.0/../../../../include/c++/6.3.0/bits/basic_string.h:136:28
	ldr	r0, [sp, #8]
.Ltmp176:
	@DEBUG_VALUE: deallocate:__p <- %R0
	@DEBUG_VALUE: deallocate:__p <- %R0
	.loc	23 180 6                @ /usr/bin/../lib/gcc/arm-linux-gnueabihf/6.3.0/../../../../include/c++/6.3.0/bits/basic_string.h:180:6
	cmp	r0, r4
	beq	.LBB1_31
.Ltmp177:
@ BB#30:
	@DEBUG_VALUE: deallocate:__p <- %R0
	@DEBUG_VALUE: deallocate:__p <- %R0
	@DEBUG_VALUE: _S_copy:__s <- %R2
	@DEBUG_VALUE: _S_copy:__n <- %R6
	@DEBUG_VALUE: setup:context <- %R8
	.loc	3 110 9                 @ /usr/bin/../lib/gcc/arm-linux-gnueabihf/6.3.0/../../../../include/c++/6.3.0/ext/new_allocator.h:110:9
	bl	_ZdlPv
.Ltmp178:
.LBB1_31:                               @ %_ZNSt7__cxx1112basic_stringIcSt11char_traitsIcESaIcEED2Ev.exit26
	@DEBUG_VALUE: _S_copy:__n <- %R6
	@DEBUG_VALUE: setup:context <- %R8
	.loc	17 39 20                @ /root/Bela/projects/Guitar_Chorus_Effctor/render.cpp:39:20
	mov	r0, #44
	bl	_Znwj
	mov	r5, r0
	.loc	17 39 24 is_stmt 0      @ /root/Bela/projects/Guitar_Chorus_Effctor/render.cpp:39:24
	vldr	s1, .LCPI1_3
	vldr	s2, .LCPI1_5
	vmov.f32	d2, #5.000000e-01
	.loc	17 39 40                @ /root/Bela/projects/Guitar_Chorus_Effctor/render.cpp:39:40
	vldr	s0, [r8, #32]
	.loc	17 39 24                @ /root/Bela/projects/Guitar_Chorus_Effctor/render.cpp:39:24
.Ltmp32:
	vmov.f32	s3, s4
	bl	_ZN6ChorusC1Effff
.Ltmp33:
.Ltmp179:
@ BB#32:
	@DEBUG_VALUE: _S_copy:__n <- %R6
	@DEBUG_VALUE: setup:context <- %R8
	.loc	17 39 18 discriminator 1 @ /root/Bela/projects/Guitar_Chorus_Effctor/render.cpp:39:18
	str	r5, [r7, #4]
	mov	r0, #1
	.loc	17 42 1 is_stmt 1 discriminator 11 @ /root/Bela/projects/Guitar_Chorus_Effctor/render.cpp:42:1
	sub	sp, r11, #24
	pop	{r4, r5, r6, r7, r8, r10, r11, pc}
.Ltmp180:
.LBB1_33:
	@DEBUG_VALUE: _S_copy:__n <- %R6
	@DEBUG_VALUE: assign:__c2 <- %R5
	@DEBUG_VALUE: _S_copy:__s <- %R5
	@DEBUG_VALUE: _S_copy_chars:__k1 <- %R5
	@DEBUG_VALUE: _M_construct<const char *>:__beg <- %R5
	@DEBUG_VALUE: _M_construct_aux<const char *>:__beg <- %R5
	@DEBUG_VALUE: _M_construct<const char *>:__beg <- %R5
	@DEBUG_VALUE: length:__s <- %R5
	@DEBUG_VALUE: basic_string:__s <- %R5
	@DEBUG_VALUE: setup:context <- %R8
.Ltmp13:
	b	.LBB1_40
.Ltmp181:
.LBB1_34:
	@DEBUG_VALUE: _S_copy:__n <- %R6
	@DEBUG_VALUE: setup:context <- %R8
.Ltmp34:
	mov	r6, r0
.Ltmp182:
	.loc	17 39 20 discriminator 2 @ /root/Bela/projects/Guitar_Chorus_Effctor/render.cpp:39:20
	mov	r0, r5
	b	.LBB1_46
.Ltmp183:
.LBB1_35:
	@DEBUG_VALUE: _S_copy:__s <- %R2
	@DEBUG_VALUE: _S_copy:__n <- %R6
	@DEBUG_VALUE: setup:context <- %R8
.Ltmp31:
	mov	r6, r0
.Ltmp184:
	.loc	23 136 28               @ /usr/bin/../lib/gcc/arm-linux-gnueabihf/6.3.0/../../../../include/c++/6.3.0/bits/basic_string.h:136:28
	ldr	r0, [sp, #8]
	b	.LBB1_44
.Ltmp185:
.LBB1_36:
	@DEBUG_VALUE: _S_copy:__s <- %R0
	@DEBUG_VALUE: _S_copy:__n <- %R6
	@DEBUG_VALUE: setup:context <- %R8
.Ltmp28:
	mov	r6, r0
.Ltmp186:
	.loc	23 136 28 is_stmt 0     @ /usr/bin/../lib/gcc/arm-linux-gnueabihf/6.3.0/../../../../include/c++/6.3.0/bits/basic_string.h:136:28
	ldr	r0, [sp, #32]
.Ltmp187:
	b	.LBB1_44
.Ltmp188:
.LBB1_37:
	@DEBUG_VALUE: _S_copy:__s <- %R0
	@DEBUG_VALUE: _S_copy:__n <- %R6
	@DEBUG_VALUE: setup:context <- %R8
.Ltmp25:
	mov	r6, r0
.Ltmp189:
	.loc	23 136 28               @ /usr/bin/../lib/gcc/arm-linux-gnueabihf/6.3.0/../../../../include/c++/6.3.0/bits/basic_string.h:136:28
	ldr	r0, [sp, #56]
.Ltmp190:
	b	.LBB1_44
.Ltmp191:
.LBB1_38:
	@DEBUG_VALUE: _S_copy:__s <- %R2
	@DEBUG_VALUE: _S_copy:__n <- %R6
	@DEBUG_VALUE: setup:context <- %R8
.Ltmp22:
	mov	r6, r0
.Ltmp192:
	.loc	23 136 28               @ /usr/bin/../lib/gcc/arm-linux-gnueabihf/6.3.0/../../../../include/c++/6.3.0/bits/basic_string.h:136:28
	ldr	r0, [sp, #80]
	b	.LBB1_44
.Ltmp193:
.LBB1_39:
	@DEBUG_VALUE: _S_copy:__n <- %R6
	@DEBUG_VALUE: setup:context <- %R8
.Ltmp19:
.Ltmp194:
.LBB1_40:                               @ %_ZNSt7__cxx1112basic_stringIcSt11char_traitsIcESaIcEED2Ev.exit16
	@DEBUG_VALUE: _S_copy:__n <- %R6
	@DEBUG_VALUE: setup:context <- %R8
	mov	r6, r0
.Ltmp195:
	b	.LBB1_45
.Ltmp196:
.LBB1_41:
	@DEBUG_VALUE: _S_copy:__n <- %R6
	@DEBUG_VALUE: setup:context <- %R8
.Ltmp16:
	mov	r6, r0
.Ltmp197:
	.loc	23 136 28               @ /usr/bin/../lib/gcc/arm-linux-gnueabihf/6.3.0/../../../../include/c++/6.3.0/bits/basic_string.h:136:28
	ldr	r0, [r11, #-88]
.Ltmp198:
	@DEBUG_VALUE: deallocate:__p <- %R0
	@DEBUG_VALUE: deallocate:__p <- %R0
	.loc	23 180 6 is_stmt 1      @ /usr/bin/../lib/gcc/arm-linux-gnueabihf/6.3.0/../../../../include/c++/6.3.0/bits/basic_string.h:180:6
	cmp	r0, r5
	beq	.LBB1_43
.Ltmp199:
@ BB#42:
	@DEBUG_VALUE: deallocate:__p <- %R0
	@DEBUG_VALUE: deallocate:__p <- %R0
	@DEBUG_VALUE: setup:context <- %R8
	.loc	3 110 9                 @ /usr/bin/../lib/gcc/arm-linux-gnueabihf/6.3.0/../../../../include/c++/6.3.0/ext/new_allocator.h:110:9
	bl	_ZdlPv
.Ltmp200:
.LBB1_43:                               @ %_ZNSt7__cxx1112basic_stringIcSt11char_traitsIcESaIcEED2Ev.exit25
	@DEBUG_VALUE: setup:context <- %R8
	.loc	23 136 28               @ /usr/bin/../lib/gcc/arm-linux-gnueabihf/6.3.0/../../../../include/c++/6.3.0/bits/basic_string.h:136:28
	ldr	r0, [r11, #-64]
.Ltmp201:
.LBB1_44:                               @ %_ZNSt7__cxx1112basic_stringIcSt11char_traitsIcESaIcEED2Ev.exit25
	@DEBUG_VALUE: setup:context <- %R8
	@DEBUG_VALUE: deallocate:__p <- %R0
	@DEBUG_VALUE: deallocate:__p <- %R0
	.loc	23 180 6                @ /usr/bin/../lib/gcc/arm-linux-gnueabihf/6.3.0/../../../../include/c++/6.3.0/bits/basic_string.h:180:6
	cmp	r0, r4
	bne	.LBB1_46
.Ltmp202:
.LBB1_45:                               @ %_ZNSt7__cxx1112basic_stringIcSt11char_traitsIcESaIcEED2Ev.exit16
	@DEBUG_VALUE: setup:context <- %R8
	mov	r0, r6
	mov	lr, pc
	b	_Unwind_Resume
.Ltmp203:
.LBB1_46:
	@DEBUG_VALUE: setup:context <- %R8
	.loc	3 110 9                 @ /usr/bin/../lib/gcc/arm-linux-gnueabihf/6.3.0/../../../../include/c++/6.3.0/ext/new_allocator.h:110:9
	bl	_ZdlPv
	mov	r0, r6
	mov	lr, pc
	b	_Unwind_Resume
.Ltmp204:
	.p2align	2
@ BB#47:
.LCPI1_0:
	.long	1112014848              @ float 50
.LCPI1_1:
	.long	1120403456              @ float 100
.LCPI1_2:
	.long	1017370378              @ float 0.0199999996
.LCPI1_3:
	.long	1028443341              @ float 0.0500000007
.LCPI1_4:
	.long	1036831949              @ float 0.100000001
.LCPI1_5:
	.long	1008981770              @ float 0.00999999977
.Lfunc_end1:
	.size	setup, .Lfunc_end1-setup
	.cfi_endproc
	.file	49 "/usr/bin/../lib/gcc/arm-linux-gnueabihf/6.3.0/../../../../include/c++/6.3.0/bits" "stl_iterator_base_types.h"
	.file	50 "/usr/bin/../lib/gcc/arm-linux-gnueabihf/6.3.0/../../../../include/c++/6.3.0/bits" "cpp_type_traits.h"
	.globl	__gxx_personality_v0
	.personality __gxx_personality_v0
	.handlerdata
	.p2align	2
GCC_except_table1:
.Lexception0:
	.byte	255                     @ @LPStart Encoding = omit
	.byte	0                       @ @TType Encoding = absptr
	.asciz	"\237\201"              @ @TType base offset
	.byte	3                       @ Call site Encoding = udata4
	.ascii	"\234\001"              @ Call site table length
	.long	.Lfunc_begin1-.Lfunc_begin1 @ >> Call Site 1 <<
	.long	.Ltmp11-.Lfunc_begin1   @   Call between .Lfunc_begin1 and .Ltmp11
	.long	0                       @     has no landing pad
	.byte	0                       @   On action: cleanup
	.long	.Ltmp11-.Lfunc_begin1   @ >> Call Site 2 <<
	.long	.Ltmp12-.Ltmp11         @   Call between .Ltmp11 and .Ltmp12
	.long	.Ltmp13-.Lfunc_begin1   @     jumps to .Ltmp13
	.byte	0                       @   On action: cleanup
	.long	.Ltmp12-.Lfunc_begin1   @ >> Call Site 3 <<
	.long	.Ltmp14-.Ltmp12         @   Call between .Ltmp12 and .Ltmp14
	.long	0                       @     has no landing pad
	.byte	0                       @   On action: cleanup
	.long	.Ltmp14-.Lfunc_begin1   @ >> Call Site 4 <<
	.long	.Ltmp15-.Ltmp14         @   Call between .Ltmp14 and .Ltmp15
	.long	.Ltmp16-.Lfunc_begin1   @     jumps to .Ltmp16
	.byte	0                       @   On action: cleanup
	.long	.Ltmp17-.Lfunc_begin1   @ >> Call Site 5 <<
	.long	.Ltmp18-.Ltmp17         @   Call between .Ltmp17 and .Ltmp18
	.long	.Ltmp19-.Lfunc_begin1   @     jumps to .Ltmp19
	.byte	0                       @   On action: cleanup
	.long	.Ltmp20-.Lfunc_begin1   @ >> Call Site 6 <<
	.long	.Ltmp21-.Ltmp20         @   Call between .Ltmp20 and .Ltmp21
	.long	.Ltmp22-.Lfunc_begin1   @     jumps to .Ltmp22
	.byte	0                       @   On action: cleanup
	.long	.Ltmp23-.Lfunc_begin1   @ >> Call Site 7 <<
	.long	.Ltmp24-.Ltmp23         @   Call between .Ltmp23 and .Ltmp24
	.long	.Ltmp25-.Lfunc_begin1   @     jumps to .Ltmp25
	.byte	0                       @   On action: cleanup
	.long	.Ltmp26-.Lfunc_begin1   @ >> Call Site 8 <<
	.long	.Ltmp27-.Ltmp26         @   Call between .Ltmp26 and .Ltmp27
	.long	.Ltmp28-.Lfunc_begin1   @     jumps to .Ltmp28
	.byte	0                       @   On action: cleanup
	.long	.Ltmp29-.Lfunc_begin1   @ >> Call Site 9 <<
	.long	.Ltmp30-.Ltmp29         @   Call between .Ltmp29 and .Ltmp30
	.long	.Ltmp31-.Lfunc_begin1   @     jumps to .Ltmp31
	.byte	0                       @   On action: cleanup
	.long	.Ltmp30-.Lfunc_begin1   @ >> Call Site 10 <<
	.long	.Ltmp32-.Ltmp30         @   Call between .Ltmp30 and .Ltmp32
	.long	0                       @     has no landing pad
	.byte	0                       @   On action: cleanup
	.long	.Ltmp32-.Lfunc_begin1   @ >> Call Site 11 <<
	.long	.Ltmp33-.Ltmp32         @   Call between .Ltmp32 and .Ltmp33
	.long	.Ltmp34-.Lfunc_begin1   @     jumps to .Ltmp34
	.byte	0                       @   On action: cleanup
	.long	.Ltmp33-.Lfunc_begin1   @ >> Call Site 12 <<
	.long	.Lfunc_end1-.Ltmp33     @   Call between .Ltmp33 and .Lfunc_end1
	.long	0                       @     has no landing pad
	.byte	0                       @   On action: cleanup
	.p2align	2
	.fnend

	.globl	render
	.p2align	3
	.type	render,%function
render:                                 @ @render
.Lfunc_begin2:
	.loc	17 49 0                 @ /root/Bela/projects/Guitar_Chorus_Effctor/render.cpp:49:0
	.fnstart
	.cfi_startproc
@ BB#0:
	.save	{r4, r5, r6, r7, r8, r9, r11, lr}
	push	{r4, r5, r6, r7, r8, r9, r11, lr}
.Ltmp205:
	.cfi_def_cfa_offset 32
.Ltmp206:
	.cfi_offset lr, -4
.Ltmp207:
	.cfi_offset r11, -8
.Ltmp208:
	.cfi_offset r9, -12
.Ltmp209:
	.cfi_offset r8, -16
.Ltmp210:
	.cfi_offset r7, -20
.Ltmp211:
	.cfi_offset r6, -24
.Ltmp212:
	.cfi_offset r5, -28
.Ltmp213:
	.cfi_offset r4, -32
	.setfp	r11, sp, #24
	add	r11, sp, #24
.Ltmp214:
	.cfi_def_cfa r11, 8
	@DEBUG_VALUE: render:context <- %R0
	@DEBUG_VALUE: render:userData <- %R1
.Ltmp215:
	.loc	17 51 5 prologue_end    @ /root/Bela/projects/Guitar_Chorus_Effctor/render.cpp:51:5
	movw	r9, :lower16:.L_MergedGlobals
	mov	r4, r0
.Ltmp216:
	@DEBUG_VALUE: render:context <- %R4
	movt	r9, :upper16:.L_MergedGlobals
	.loc	17 51 46 is_stmt 0      @ /root/Bela/projects/Guitar_Chorus_Effctor/render.cpp:51:46
	add	r6, r9, #44
	mov	r1, #0
.Ltmp217:
	.loc	17 51 5                 @ /root/Bela/projects/Guitar_Chorus_Effctor/render.cpp:51:5
	ldr	r8, [r9, #4]
	.loc	17 51 46                @ /root/Bela/projects/Guitar_Chorus_Effctor/render.cpp:51:46
	mov	r0, r6
	mov	r5, #0
	bl	_ZN13GuiController14getSliderValueEi
	.loc	17 51 31                @ /root/Bela/projects/Guitar_Chorus_Effctor/render.cpp:51:31
	vcvt.f64.f32	d16, s0
	.loc	17 51 19 discriminator 1 @ /root/Bela/projects/Guitar_Chorus_Effctor/render.cpp:51:19
	mov	r0, r8
	.loc	17 51 64                @ /root/Bela/projects/Guitar_Chorus_Effctor/render.cpp:51:64
	vldr	d17, .LCPI2_0
	vmul.f64	d16, d16, d17
	.loc	17 51 31                @ /root/Bela/projects/Guitar_Chorus_Effctor/render.cpp:51:31
	vcvt.f32.f64	s0, d16
	.loc	17 51 19 discriminator 1 @ /root/Bela/projects/Guitar_Chorus_Effctor/render.cpp:51:19
	bl	_ZN6Chorus11setMixLevelEf
	.loc	17 52 51 is_stmt 1      @ /root/Bela/projects/Guitar_Chorus_Effctor/render.cpp:52:51
	mov	r0, r6
	mov	r1, #1
	.loc	17 52 5 is_stmt 0       @ /root/Bela/projects/Guitar_Chorus_Effctor/render.cpp:52:5
	ldr	r8, [r9, #4]
	.loc	17 52 51                @ /root/Bela/projects/Guitar_Chorus_Effctor/render.cpp:52:51
	bl	_ZN13GuiController14getSliderValueEi
	.loc	17 52 19 discriminator 1 @ /root/Bela/projects/Guitar_Chorus_Effctor/render.cpp:52:19
	mov	r0, r8
	bl	_ZN6Chorus16setBaseDelayTimeEf
	.loc	17 53 50 is_stmt 1      @ /root/Bela/projects/Guitar_Chorus_Effctor/render.cpp:53:50
	mov	r0, r6
	mov	r1, #2
	.loc	17 53 5 is_stmt 0       @ /root/Bela/projects/Guitar_Chorus_Effctor/render.cpp:53:5
	ldr	r8, [r9, #4]
	.loc	17 53 50                @ /root/Bela/projects/Guitar_Chorus_Effctor/render.cpp:53:50
	bl	_ZN13GuiController14getSliderValueEi
	.loc	17 53 19 discriminator 1 @ /root/Bela/projects/Guitar_Chorus_Effctor/render.cpp:53:19
	mov	r0, r8
	bl	_ZN6Chorus15setLFOFrequencyEf
.Ltmp218:
	@DEBUG_VALUE: n <- 0
	.loc	17 55 43 is_stmt 1 discriminator 1 @ /root/Bela/projects/Guitar_Chorus_Effctor/render.cpp:55:43
	ldr	r0, [r4, #20]
	.loc	17 55 5 is_stmt 0 discriminator 1 @ /root/Bela/projects/Guitar_Chorus_Effctor/render.cpp:55:5
	cmp	r0, #0
	beq	.LBB2_11
.Ltmp219:
@ BB#1:                                 @ %.lr.ph19
	@DEBUG_VALUE: render:context <- %R4
	.loc	17 57 65 is_stmt 1      @ /root/Bela/projects/Guitar_Chorus_Effctor/render.cpp:57:65
	ldr	r1, [r9]
	mov	r6, #0
.Ltmp220:
	.loc	7 781 32                @ /usr/bin/../lib/gcc/arm-linux-gnueabihf/6.3.0/../../../../include/c++/6.3.0/bits/stl_vector.h:781:32
	ldr	r8, [r9, #8]
.Ltmp221:
.LBB2_2:                                @ =>This Loop Header: Depth=1
                                        @     Child Loop BB2_6 Depth 2
                                        @     Child Loop BB2_9 Depth 2
	@DEBUG_VALUE: operator[]:__n <- %R1
	.loc	7 781 41 is_stmt 0      @ /usr/bin/../lib/gcc/arm-linux-gnueabihf/6.3.0/../../../../include/c++/6.3.0/bits/stl_vector.h:781:41
	add	r1, r8, r1, lsl #2
.Ltmp222:
	.loc	17 57 29 is_stmt 1      @ /root/Bela/projects/Guitar_Chorus_Effctor/render.cpp:57:29
	ldr	r0, [r9, #4]
	.loc	17 57 51 is_stmt 0      @ /root/Bela/projects/Guitar_Chorus_Effctor/render.cpp:57:51
	vldr	s0, [r1]
	.loc	17 57 43 discriminator 2 @ /root/Bela/projects/Guitar_Chorus_Effctor/render.cpp:57:43
	bl	_ZN6Chorus7processEf
.Ltmp223:
	.loc	17 59 59 is_stmt 1 discriminator 1 @ /root/Bela/projects/Guitar_Chorus_Effctor/render.cpp:59:59
	ldr	r0, [r4, #28]
.Ltmp224:
	.loc	17 57 43 discriminator 2 @ /root/Bela/projects/Guitar_Chorus_Effctor/render.cpp:57:43
                                        @ kill: %S0<def> %S0<kill> %D0<def>
.Ltmp225:
	@DEBUG_VALUE: mixedSample <- %S0
	@DEBUG_VALUE: channel <- 0
	.loc	17 59 9 discriminator 1 @ /root/Bela/projects/Guitar_Chorus_Effctor/render.cpp:59:9
	cmp	r0, #0
	beq	.LBB2_10
.Ltmp226:
@ BB#3:                                 @ %.lr.ph
                                        @   in Loop: Header=BB2_2 Depth=1
	@DEBUG_VALUE: mixedSample <- %S0
	ldr	r1, [r4, #4]
	mov	r2, #0
	cmp	r0, #3
	bls	.LBB2_8
.Ltmp227:
@ BB#4:                                 @ %min.iters.checked
                                        @   in Loop: Header=BB2_2 Depth=1
	@DEBUG_VALUE: mixedSample <- %S0
	mov	r7, r0
	bfc	r7, #0, #2
	cmp	r7, #0
	beq	.LBB2_8
.Ltmp228:
@ BB#5:                                 @ %vector.ph
                                        @   in Loop: Header=BB2_2 Depth=1
	@DEBUG_VALUE: mixedSample <- %S0
	mla	r2, r0, r5, r1
	vdup.32	q8, d0[0]
	.loc	17 59 84 is_stmt 0 discriminator 3 @ /root/Bela/projects/Guitar_Chorus_Effctor/render.cpp:59:84
	mov	r3, r7
.Ltmp229:
.LBB2_6:                                @ %vector.body
                                        @   Parent Loop BB2_2 Depth=1
                                        @ =>  This Inner Loop Header: Depth=2
	.file	51 "./include" "Bela.h"
	.loc	51 1276 65 is_stmt 1    @ ./include/Bela.h:1276:65
	vst1.32	{d16, d17}, [r2]!
.Ltmp230:
	.loc	17 59 9 discriminator 1 @ /root/Bela/projects/Guitar_Chorus_Effctor/render.cpp:59:9
	subs	r3, r3, #4
	bne	.LBB2_6
@ BB#7:                                 @ %middle.block
                                        @   in Loop: Header=BB2_2 Depth=1
	mov	r2, r7
	cmp	r0, r7
	beq	.LBB2_10
.LBB2_8:                                @ %scalar.ph.preheader
                                        @   in Loop: Header=BB2_2 Depth=1
.Ltmp231:
	.loc	51 1276 54              @ ./include/Bela.h:1276:54
	mla	r3, r0, r6, r2
	add	r1, r1, r3, lsl #2
.Ltmp232:
.LBB2_9:                                @ %scalar.ph
                                        @   Parent Loop BB2_2 Depth=1
                                        @ =>  This Inner Loop Header: Depth=2
	.loc	17 59 84 discriminator 3 @ /root/Bela/projects/Guitar_Chorus_Effctor/render.cpp:59:84
	add	r2, r2, #1
.Ltmp233:
	@DEBUG_VALUE: channel <- %R2
	.loc	51 1276 65              @ ./include/Bela.h:1276:65
	vstmia	r1!, {s0}
.Ltmp234:
	.loc	17 59 9 discriminator 1 @ /root/Bela/projects/Guitar_Chorus_Effctor/render.cpp:59:9
	cmp	r2, r0
	blo	.LBB2_9
.Ltmp235:
.LBB2_10:                               @ %._crit_edge
                                        @   in Loop: Header=BB2_2 Depth=1
	.loc	17 65 25                @ /root/Bela/projects/Guitar_Chorus_Effctor/render.cpp:65:25
	ldr	r0, [r9]
.Ltmp236:
	.loc	7 656 66                @ /usr/bin/../lib/gcc/arm-linux-gnueabihf/6.3.0/../../../../include/c++/6.3.0/bits/stl_vector.h:656:66
	ldr	r8, [r9, #8]
	ldr	r1, [r9, #12]
.Ltmp237:
	.loc	17 65 38                @ /root/Bela/projects/Guitar_Chorus_Effctor/render.cpp:65:38
	add	r0, r0, #1
.Ltmp238:
	.loc	7 656 50                @ /usr/bin/../lib/gcc/arm-linux-gnueabihf/6.3.0/../../../../include/c++/6.3.0/bits/stl_vector.h:656:50
	sub	r1, r1, r8
	asr	r1, r1, #2
.Ltmp239:
	.loc	17 65 43                @ /root/Bela/projects/Guitar_Chorus_Effctor/render.cpp:65:43
	bl	__aeabi_uidivmod
	.loc	17 65 22 is_stmt 0      @ /root/Bela/projects/Guitar_Chorus_Effctor/render.cpp:65:22
	str	r1, [r9]
.Ltmp240:
	.loc	17 55 5 is_stmt 1 discriminator 1 @ /root/Bela/projects/Guitar_Chorus_Effctor/render.cpp:55:5
	add	r5, r5, #4
	.loc	17 55 57 is_stmt 0 discriminator 3 @ /root/Bela/projects/Guitar_Chorus_Effctor/render.cpp:55:57
	add	r6, r6, #1
.Ltmp241:
	@DEBUG_VALUE: n <- %R6
	.loc	17 55 43 discriminator 1 @ /root/Bela/projects/Guitar_Chorus_Effctor/render.cpp:55:43
	ldr	r0, [r4, #20]
	.loc	17 55 5 discriminator 1 @ /root/Bela/projects/Guitar_Chorus_Effctor/render.cpp:55:5
	cmp	r6, r0
	blo	.LBB2_2
.Ltmp242:
.LBB2_11:                               @ %._crit_edge20
	.loc	17 67 1 is_stmt 1       @ /root/Bela/projects/Guitar_Chorus_Effctor/render.cpp:67:1
	pop	{r4, r5, r6, r7, r8, r9, r11, pc}
.Ltmp243:
	.p2align	3
@ BB#12:
.LCPI2_0:
	.long	1202590843              @ double 0.01
	.long	1065646817
.Lfunc_end2:
	.size	render, .Lfunc_end2-render
	.cfi_endproc
	.fnend

	.globl	cleanup
	.p2align	2
	.type	cleanup,%function
cleanup:                                @ @cleanup
.Lfunc_begin3:
	.loc	17 70 0                 @ /root/Bela/projects/Guitar_Chorus_Effctor/render.cpp:70:0
	.fnstart
	.cfi_startproc
@ BB#0:
	.save	{r4, r10, r11, lr}
	push	{r4, r10, r11, lr}
.Ltmp244:
	.cfi_def_cfa_offset 16
.Ltmp245:
	.cfi_offset lr, -4
.Ltmp246:
	.cfi_offset r11, -8
.Ltmp247:
	.cfi_offset r10, -12
.Ltmp248:
	.cfi_offset r4, -16
	.setfp	r11, sp, #8
	add	r11, sp, #8
.Ltmp249:
	.cfi_def_cfa r11, 8
	@DEBUG_VALUE: cleanup:context <- %R0
	@DEBUG_VALUE: cleanup:userData <- %R1
.Ltmp250:
	.loc	17 72 12 prologue_end   @ /root/Bela/projects/Guitar_Chorus_Effctor/render.cpp:72:12
	movw	r0, :lower16:.L_MergedGlobals
.Ltmp251:
	movt	r0, :upper16:.L_MergedGlobals
	ldr	r4, [r0, #4]
.Ltmp252:
	@DEBUG_VALUE: ~Chorus:this <- %R4
	.loc	17 72 5 is_stmt 0       @ /root/Bela/projects/Guitar_Chorus_Effctor/render.cpp:72:5
	cmp	r4, #0
	.loc	17 73 1 is_stmt 1       @ /root/Bela/projects/Guitar_Chorus_Effctor/render.cpp:73:1
	popeq	{r4, r10, r11, pc}
.Ltmp253:
	.loc	7 160 37                @ /usr/bin/../lib/gcc/arm-linux-gnueabihf/6.3.0/../../../../include/c++/6.3.0/bits/stl_vector.h:160:37
	ldr	r0, [r4, #20]
.Ltmp254:
	@DEBUG_VALUE: _M_deallocate:__p <- %R0
	@DEBUG_VALUE: deallocate:__p <- %R0
	@DEBUG_VALUE: deallocate:__p <- %R0
	.loc	7 177 6                 @ /usr/bin/../lib/gcc/arm-linux-gnueabihf/6.3.0/../../../../include/c++/6.3.0/bits/stl_vector.h:177:6
	cmp	r0, #0
	beq	.LBB3_2
.Ltmp255:
@ BB#1:
	@DEBUG_VALUE: deallocate:__p <- %R0
	@DEBUG_VALUE: deallocate:__p <- %R0
	@DEBUG_VALUE: _M_deallocate:__p <- %R0
	@DEBUG_VALUE: cleanup:userData <- %R1
	.loc	3 110 9                 @ /usr/bin/../lib/gcc/arm-linux-gnueabihf/6.3.0/../../../../include/c++/6.3.0/ext/new_allocator.h:110:9
	bl	_ZdlPv
.Ltmp256:
.LBB3_2:                                @ %_ZN6ChorusD2Ev.exit
	.loc	17 72 5 discriminator 2 @ /root/Bela/projects/Guitar_Chorus_Effctor/render.cpp:72:5
	mov	r0, r4
	pop	{r4, r10, r11, lr}
	b	_ZdlPv
.Ltmp257:
.Lfunc_end3:
	.size	cleanup, .Lfunc_end3-cleanup
	.cfi_endproc
	.file	52 "<stdin>"
	.fnend

	.section	.text.startup,"ax",%progbits
	.p2align	2
	.type	_GLOBAL__sub_I_render.ii,%function
_GLOBAL__sub_I_render.ii:               @ @_GLOBAL__sub_I_render.ii
.Lfunc_begin4:
	.file	53 "/root/Bela/projects/Guitar_Chorus_Effctor/build" "render.cpp"
	.loc	53 0 0                  @ /root/Bela/projects/Guitar_Chorus_Effctor/build/render.cpp:0:0
	.fnstart
	.cfi_startproc
@ BB#0:
	.save	{r4, r5, r6, r10, r11, lr}
	push	{r4, r5, r6, r10, r11, lr}
.Ltmp258:
	.cfi_def_cfa_offset 24
.Ltmp259:
	.cfi_offset lr, -4
.Ltmp260:
	.cfi_offset r11, -8
.Ltmp261:
	.cfi_offset r10, -12
.Ltmp262:
	.cfi_offset r6, -16
.Ltmp263:
	.cfi_offset r5, -20
.Ltmp264:
	.cfi_offset r4, -24
	.setfp	r11, sp, #16
	add	r11, sp, #16
.Ltmp265:
	.cfi_def_cfa r11, 8
.Ltmp266:
	.loc	17 7 5 prologue_end     @ /root/Bela/projects/Guitar_Chorus_Effctor/render.cpp:7:5
	movw	r5, :lower16:gui
	movt	r5, :upper16:gui
	mov	r0, r5
	bl	_ZN3GuiC1Ev
	.loc	17 7 5 is_stmt 0 discriminator 1 @ /root/Bela/projects/Guitar_Chorus_Effctor/render.cpp:7:5
	movw	r4, :lower16:__dso_handle
	movw	r0, :lower16:_ZN3GuiD1Ev
	movt	r4, :upper16:__dso_handle
	movt	r0, :upper16:_ZN3GuiD1Ev
	mov	r1, r5
	mov	r2, r4
	bl	__cxa_atexit
.Ltmp267:
	.loc	17 8 15 is_stmt 1       @ /root/Bela/projects/Guitar_Chorus_Effctor/render.cpp:8:15
	movw	r5, :lower16:.L_MergedGlobals
	movt	r5, :upper16:.L_MergedGlobals
	add	r6, r5, #44
	mov	r0, r6
	bl	_ZN13GuiControllerC1Ev
	.loc	17 8 15 is_stmt 0 discriminator 1 @ /root/Bela/projects/Guitar_Chorus_Effctor/render.cpp:8:15
	movw	r0, :lower16:_ZN13GuiControllerD1Ev
	mov	r1, r6
	movt	r0, :upper16:_ZN13GuiControllerD1Ev
	mov	r2, r4
	bl	__cxa_atexit
.Ltmp268:
	.loc	23 110 25 is_stmt 1     @ /usr/bin/../lib/gcc/arm-linux-gnueabihf/6.3.0/../../../../include/c++/6.3.0/bits/basic_string.h:110:25
	add	r0, r5, #28
	str	r0, [r5, #20]
.Ltmp269:
	@DEBUG_VALUE: _S_copy:__n <- 14
	@DEBUG_VALUE: _M_construct<const char *>:__dnew <- 14
	.loc	24 290 33               @ /usr/bin/../lib/gcc/arm-linux-gnueabihf/6.3.0/../../../../include/c++/6.3.0/bits/char_traits.h:290:33
	movw	r0, :lower16:.L.str
	mov	r6, #0
	movt	r0, :upper16:.L.str
	add	r1, r0, #6
	vldr	d17, [r0]
	add	r0, r5, #34
	vld1.16	{d16}, [r1]
.Ltmp270:
	.loc	23 110 25               @ /usr/bin/../lib/gcc/arm-linux-gnueabihf/6.3.0/../../../../include/c++/6.3.0/bits/basic_string.h:110:25
	add	r1, r5, #20
.Ltmp271:
	@DEBUG_VALUE: _M_length:this <- %R1
	@DEBUG_VALUE: _M_set_length:__n <- 14
	@DEBUG_VALUE: _M_set_length:this <- %R1
	@DEBUG_VALUE: _M_construct<const char *>:this <- %R1
	@DEBUG_VALUE: _M_construct_aux<const char *>:this <- %R1
	@DEBUG_VALUE: _M_construct<const char *>:this <- %R1
	@DEBUG_VALUE: basic_string:this <- %R1
	.loc	17 10 13 discriminator 6 @ /root/Bela/projects/Guitar_Chorus_Effctor/render.cpp:10:13
	mov	r2, r4
.Ltmp272:
	.loc	24 290 33               @ /usr/bin/../lib/gcc/arm-linux-gnueabihf/6.3.0/../../../../include/c++/6.3.0/bits/char_traits.h:290:33
	vst1.16	{d16}, [r0]
	mov	r0, #14
.Ltmp273:
	@DEBUG_VALUE: _M_length:__length <- 14
	vstr	d17, [r5, #28]
.Ltmp274:
	.loc	23 132 26               @ /usr/bin/../lib/gcc/arm-linux-gnueabihf/6.3.0/../../../../include/c++/6.3.0/bits/basic_string.h:132:26
	str	r0, [r5, #24]
.Ltmp275:
	.loc	17 10 13 discriminator 6 @ /root/Bela/projects/Guitar_Chorus_Effctor/render.cpp:10:13
	movw	r0, :lower16:_ZNSt7__cxx1112basic_stringIcSt11char_traitsIcESaIcEED2Ev
	movt	r0, :upper16:_ZNSt7__cxx1112basic_stringIcSt11char_traitsIcESaIcEED2Ev
.Ltmp276:
	.loc	24 243 14               @ /usr/bin/../lib/gcc/arm-linux-gnueabihf/6.3.0/../../../../include/c++/6.3.0/bits/char_traits.h:243:14
	strb	r6, [r5, #42]
.Ltmp277:
	.loc	17 10 13 discriminator 6 @ /root/Bela/projects/Guitar_Chorus_Effctor/render.cpp:10:13
	bl	__cxa_atexit
.Ltmp278:
	.loc	7 87 22                 @ /usr/bin/../lib/gcc/arm-linux-gnueabihf/6.3.0/../../../../include/c++/6.3.0/bits/stl_vector.h:87:22
	str	r6, [r5, #8]!
.Ltmp279:
	.loc	17 11 20 discriminator 1 @ /root/Bela/projects/Guitar_Chorus_Effctor/render.cpp:11:20
	movw	r0, :lower16:_ZNSt6vectorIfSaIfEED2Ev
	movt	r0, :upper16:_ZNSt6vectorIfSaIfEED2Ev
	mov	r2, r4
.Ltmp280:
	@DEBUG_VALUE: vector:this <- %R5
	@DEBUG_VALUE: _S_copy:__s <- %R0
	@DEBUG_VALUE: _S_copy:__d <- %R0
	.loc	7 87 34                 @ /usr/bin/../lib/gcc/arm-linux-gnueabihf/6.3.0/../../../../include/c++/6.3.0/bits/stl_vector.h:87:34
	str	r6, [r5, #4]
.Ltmp281:
	.loc	17 11 20 discriminator 1 @ /root/Bela/projects/Guitar_Chorus_Effctor/render.cpp:11:20
	mov	r1, r5
.Ltmp282:
	.loc	7 87 47                 @ /usr/bin/../lib/gcc/arm-linux-gnueabihf/6.3.0/../../../../include/c++/6.3.0/bits/stl_vector.h:87:47
	str	r6, [r5, #8]
.Ltmp283:
	.loc	17 11 20 discriminator 1 @ /root/Bela/projects/Guitar_Chorus_Effctor/render.cpp:11:20
	pop	{r4, r5, r6, r10, r11, lr}
.Ltmp284:
	b	__cxa_atexit
.Ltmp285:
.Lfunc_end4:
	.size	_GLOBAL__sub_I_render.ii, .Lfunc_end4-_GLOBAL__sub_I_render.ii
	.cfi_endproc
	.fnend

	.type	gui,%object             @ @gui
	.bss
	.globl	gui
	.p2align	2
gui:
	.zero	136
	.size	gui, 136

	.type	.L.str,%object          @ @.str
	.section	.rodata.str1.8,"aMS",%progbits,1
	.p2align	3
.L.str:
	.asciz	"guitarLoop.wav"
	.size	.L.str, 15

	.type	.L.str.4,%object        @ @.str.4
	.section	.rodata.str1.1,"aMS",%progbits,1
.L.str.4:
	.asciz	"Error loading audio file '%s'\n"
	.size	.L.str.4, 31

	.type	.L.str.5,%object        @ @.str.5
.L.str.5:
	.asciz	"Loaded the audio file '%s' with %d frames (%.1f seconds)\n"
	.size	.L.str.5, 58

	.type	.L.str.6,%object        @ @.str.6
.L.str.6:
	.asciz	"gui"
	.size	.L.str.6, 4

	.type	.L.str.7,%object        @ @.str.7
	.section	.rodata.str1.8,"aMS",%progbits,1
	.p2align	3
.L.str.7:
	.asciz	"Chorus Controller"
	.size	.L.str.7, 18

	.type	.L.str.8,%object        @ @.str.8
	.p2align	3
.L.str.8:
	.asciz	"Mix level"
	.size	.L.str.8, 10

	.type	.L.str.9,%object        @ @.str.9
	.p2align	3
.L.str.9:
	.asciz	"Delay time"
	.size	.L.str.9, 11

	.type	.L.str.10,%object       @ @.str.10
	.p2align	3
.L.str.10:
	.asciz	"LFO frequency"
	.size	.L.str.10, 14

	.section	.init_array,"aw",%init_array
	.p2align	2
	.long	_GLOBAL__sub_I_render.ii(target1)
	.type	.L_MergedGlobals,%object @ @_MergedGlobals
	.local	.L_MergedGlobals
	.comm	.L_MergedGlobals,108,16